
a.out:     file format elf64-powerpcle


Disassembly of section .init:

00000000100006a0 <00000024.plt_call.__gmon_start__>:
    100006a0:	18 00 41 f8 	std     r2,24(r1)
    100006a4:	58 81 82 e9 	ld      r12,-32424(r2)
    100006a8:	a6 03 89 7d 	mtctr   r12
    100006ac:	20 04 80 4e 	bctr
	...

00000000100006c0 <_init>:
    100006c0:	02 10 40 3c 	lis     r2,4098
    100006c4:	00 7f 42 38 	addi    r2,r2,32512
    100006c8:	a6 02 08 7c 	mflr    r0
    100006cc:	10 00 01 f8 	std     r0,16(r1)
    100006d0:	a1 ff 21 f8 	stdu    r1,-96(r1)
    100006d4:	00 00 00 60 	nop
    100006d8:	08 80 02 e8 	ld      r0,-32760(r2)
    100006dc:	00 00 a0 2f 	cmpdi   cr7,r0,0
    100006e0:	0c 00 fe 41 	beq+    cr7,100006ec <_init+0x2c>
    100006e4:	bd ff ff 4b 	bl      100006a0 <00000024.plt_call.__gmon_start__>
    100006e8:	18 00 41 e8 	ld      r2,24(r1)
    100006ec:	60 00 21 38 	addi    r1,r1,96
    100006f0:	10 00 01 e8 	ld      r0,16(r1)
    100006f4:	a6 03 08 7c 	mtlr    r0
    100006f8:	20 00 80 4e 	blr

Disassembly of section .text:

0000000010000700 <00000019.plt_call.__ctype_b_loc@@GLIBC_2.17>:
    10000700:	18 00 41 f8 	std     r2,24(r1)
    10000704:	60 81 82 e9 	ld      r12,-32416(r2)
    10000708:	a6 03 89 7d 	mtctr   r12
    1000070c:	20 04 80 4e 	bctr
	...

0000000010000720 <00000019.plt_call.fprintf@@GLIBC_2.17>:
    10000720:	18 00 41 f8 	std     r2,24(r1)
    10000724:	78 81 82 e9 	ld      r12,-32392(r2)
    10000728:	a6 03 89 7d 	mtctr   r12
    1000072c:	20 04 80 4e 	bctr
	...

0000000010000740 <00000019.plt_call.strncmp@@GLIBC_2.17>:
    10000740:	18 00 41 f8 	std     r2,24(r1)
    10000744:	48 81 82 e9 	ld      r12,-32440(r2)
    10000748:	a6 03 89 7d 	mtctr   r12
    1000074c:	20 04 80 4e 	bctr
	...

0000000010000760 <00000019.plt_call.strtod@@GLIBC_2.17>:
    10000760:	18 00 41 f8 	std     r2,24(r1)
    10000764:	20 81 82 e9 	ld      r12,-32480(r2)
    10000768:	a6 03 89 7d 	mtctr   r12
    1000076c:	20 04 80 4e 	bctr
	...

0000000010000780 <00000019.plt_call.fputc@@GLIBC_2.17>:
    10000780:	18 00 41 f8 	std     r2,24(r1)
    10000784:	30 81 82 e9 	ld      r12,-32464(r2)
    10000788:	a6 03 89 7d 	mtctr   r12
    1000078c:	20 04 80 4e 	bctr
	...

00000000100007a0 <00000019.plt_call.__errno_location@@GLIBC_2.17>:
    100007a0:	18 00 41 f8 	std     r2,24(r1)
    100007a4:	70 81 82 e9 	ld      r12,-32400(r2)
    100007a8:	a6 03 89 7d 	mtctr   r12
    100007ac:	20 04 80 4e 	bctr
	...

00000000100007c0 <00000019.plt_call.fgets_unlocked@@GLIBC_2.17>:
    100007c0:	18 00 41 f8 	std     r2,24(r1)
    100007c4:	28 81 82 e9 	ld      r12,-32472(r2)
    100007c8:	a6 03 89 7d 	mtctr   r12
    100007cc:	20 04 80 4e 	bctr
	...

00000000100007e0 <00000019.plt_call.strchr@@GLIBC_2.17>:
    100007e0:	18 00 41 f8 	std     r2,24(r1)
    100007e4:	68 81 82 e9 	ld      r12,-32408(r2)
    100007e8:	a6 03 89 7d 	mtctr   r12
    100007ec:	20 04 80 4e 	bctr
	...

0000000010000800 <00000019.plt_call.__libc_start_main@@GLIBC_2.17>:
    10000800:	18 00 41 f8 	std     r2,24(r1)
    10000804:	50 81 82 e9 	ld      r12,-32432(r2)
    10000808:	a6 03 89 7d 	mtctr   r12
    1000080c:	20 04 80 4e 	bctr
	...

0000000010000820 <00000019.plt_call.fopen@@GLIBC_2.17>:
    10000820:	18 00 41 f8 	std     r2,24(r1)
    10000824:	40 81 82 e9 	ld      r12,-32448(r2)
    10000828:	a6 03 89 7d 	mtctr   r12
    1000082c:	20 04 80 4e 	bctr
	...

0000000010000840 <00000019.plt_call.perror@@GLIBC_2.17>:
    10000840:	18 00 41 f8 	std     r2,24(r1)
    10000844:	10 81 82 e9 	ld      r12,-32496(r2)
    10000848:	a6 03 89 7d 	mtctr   r12
    1000084c:	20 04 80 4e 	bctr
	...

0000000010000860 <00000019.plt_call.strtoll@@GLIBC_2.17>:
    10000860:	18 00 41 f8 	std     r2,24(r1)
    10000864:	18 81 82 e9 	ld      r12,-32488(r2)
    10000868:	a6 03 89 7d 	mtctr   r12
    1000086c:	20 04 80 4e 	bctr
	...

0000000010000880 <00000019.plt_call.fclose@@GLIBC_2.17>:
    10000880:	18 00 41 f8 	std     r2,24(r1)
    10000884:	38 81 82 e9 	ld      r12,-32456(r2)
    10000888:	a6 03 89 7d 	mtctr   r12
    1000088c:	20 04 80 4e 	bctr
	...

00000000100008a0 <_start>:
    100008a0:	02 10 40 3c 	lis     r2,4098
    100008a4:	00 7f 42 38 	addi    r2,r2,32512
    100008a8:	78 0b 29 7c 	mr      r9,r1
    100008ac:	e4 06 21 78 	rldicr  r1,r1,0,59
    100008b0:	00 00 00 38 	li      r0,0
    100008b4:	81 ff 21 f8 	stdu    r1,-128(r1)
    100008b8:	a6 03 08 7c 	mtlr    r0
    100008bc:	00 00 01 f8 	std     r0,0(r1)
    100008c0:	10 80 02 e9 	ld      r8,-32752(r2)
    100008c4:	3c ff ff 4b 	b       10000800 <00000019.plt_call.__libc_start_main@@GLIBC_2.17>
    100008c8:	00 00 00 60 	nop
	...
    100008d4:	40 20 0c 00 	.long 0xc2040
    100008d8:	2c 00 00 00 	.long 0x2c
    100008dc:	06 00 5f 73 	andi.   r31,r26,6
    100008e0:	74 61 72 74 	andis.  r18,r3,24948
    100008e4:	00 00 00 60 	nop
    100008e8:	00 00 00 60 	nop
    100008ec:	00 00 00 60 	nop

00000000100008f0 <deregister_tm_clones>:
    100008f0:	02 10 40 3c 	lis     r2,4098
    100008f4:	00 7f 42 38 	addi    r2,r2,32512
    100008f8:	00 00 00 60 	nop
    100008fc:	00 00 00 60 	nop
    10000900:	98 81 62 38 	addi    r3,r2,-32360
    10000904:	98 81 22 39 	addi    r9,r2,-32360
    10000908:	00 18 29 7c 	cmpd    r9,r3
    1000090c:	20 00 82 4d 	beqlr
    10000910:	00 00 00 60 	nop
    10000914:	18 80 82 e9 	ld      r12,-32744(r2)
    10000918:	00 00 2c 2c 	cmpdi   r12,0
    1000091c:	20 00 82 4d 	beqlr
    10000920:	a6 02 08 7c 	mflr    r0
    10000924:	10 00 01 f8 	std     r0,16(r1)
    10000928:	e1 ff 21 f8 	stdu    r1,-32(r1)
    1000092c:	a6 03 89 7d 	mtctr   r12
    10000930:	18 00 41 f8 	std     r2,24(r1)
    10000934:	21 04 80 4e 	bctrl
    10000938:	18 00 41 e8 	ld      r2,24(r1)
    1000093c:	20 00 21 38 	addi    r1,r1,32
    10000940:	10 00 01 e8 	ld      r0,16(r1)
    10000944:	a6 03 08 7c 	mtlr    r0
    10000948:	20 00 80 4e 	blr
    1000094c:	00 00 42 60 	ori     r2,r2,0

0000000010000950 <register_tm_clones>:
    10000950:	02 10 40 3c 	lis     r2,4098
    10000954:	00 7f 42 38 	addi    r2,r2,32512
    10000958:	00 00 00 60 	nop
    1000095c:	00 00 00 60 	nop
    10000960:	98 81 62 38 	addi    r3,r2,-32360
    10000964:	98 81 82 38 	addi    r4,r2,-32360
    10000968:	50 20 83 7c 	subf    r4,r3,r4
    1000096c:	74 1e 84 7c 	sradi   r4,r4,3
    10000970:	74 0e 84 7c 	sradi   r4,r4,1
    10000974:	95 01 84 7c 	addze.  r4,r4
    10000978:	20 00 82 4d 	beqlr
    1000097c:	00 00 00 60 	nop
    10000980:	20 80 82 e9 	ld      r12,-32736(r2)
    10000984:	00 00 2c 2c 	cmpdi   r12,0
    10000988:	20 00 82 4d 	beqlr
    1000098c:	a6 02 08 7c 	mflr    r0
    10000990:	10 00 01 f8 	std     r0,16(r1)
    10000994:	e1 ff 21 f8 	stdu    r1,-32(r1)
    10000998:	a6 03 89 7d 	mtctr   r12
    1000099c:	18 00 41 f8 	std     r2,24(r1)
    100009a0:	21 04 80 4e 	bctrl
    100009a4:	18 00 41 e8 	ld      r2,24(r1)
    100009a8:	20 00 21 38 	addi    r1,r1,32
    100009ac:	10 00 01 e8 	ld      r0,16(r1)
    100009b0:	a6 03 08 7c 	mtlr    r0
    100009b4:	20 00 80 4e 	blr
    100009b8:	00 00 00 60 	nop
    100009bc:	00 00 42 60 	ori     r2,r2,0

00000000100009c0 <__do_global_dtors_aux>:
    100009c0:	02 10 40 3c 	lis     r2,4098
    100009c4:	00 7f 42 38 	addi    r2,r2,32512
    100009c8:	f8 ff e1 fb 	std     r31,-8(r1)
    100009cc:	d1 ff 21 f8 	stdu    r1,-48(r1)
    100009d0:	00 00 00 60 	nop
    100009d4:	98 81 22 89 	lbz     r9,-32360(r2)
    100009d8:	00 00 09 2c 	cmpwi   r9,0
    100009dc:	20 00 82 40 	bne     100009fc <__do_global_dtors_aux+0x3c>
    100009e0:	a6 02 08 7c 	mflr    r0
    100009e4:	40 00 01 f8 	std     r0,64(r1)
    100009e8:	11 ff ff 4b 	bl      100008f8 <deregister_tm_clones+0x8>
    100009ec:	40 00 01 e8 	ld      r0,64(r1)
    100009f0:	01 00 20 39 	li      r9,1
    100009f4:	98 81 22 99 	stb     r9,-32360(r2)
    100009f8:	a6 03 08 7c 	mtlr    r0
    100009fc:	30 00 21 38 	addi    r1,r1,48
    10000a00:	f8 ff e1 eb 	ld      r31,-8(r1)
    10000a04:	20 00 80 4e 	blr
    10000a08:	00 00 00 60 	nop
    10000a0c:	00 00 42 60 	ori     r2,r2,0

0000000010000a10 <frame_dummy>:
    10000a10:	02 10 40 3c 	lis     r2,4098
    10000a14:	00 7f 42 38 	addi    r2,r2,32512
    10000a18:	40 ff ff 4b 	b       10000958 <register_tm_clones+0x8>
    10000a1c:	00 00 00 60 	nop

0000000010000a20 <matmul>:
    10000a20:	02 10 40 3c 	lis     r2,4098
    10000a24:	00 7f 42 38 	addi    r2,r2,32512
    10000a28:	20 00 62 3c 	addis   r3,r2,32
    10000a2c:	68 ff c1 f9 	std     r14,-152(r1)
    10000a30:	00 00 00 60 	nop
    10000a34:	70 ff e1 f9 	std     r15,-144(r1)
    10000a38:	78 ff 01 fa 	std     r16,-136(r1)
    10000a3c:	80 ff 21 fa 	std     r17,-128(r1)
    10000a40:	10 00 a0 38 	li      r5,16
    10000a44:	20 00 c0 38 	li      r6,32
    10000a48:	a8 81 c3 39 	addi    r14,r3,-32344
    10000a4c:	10 00 62 3c 	addis   r3,r2,16
    10000a50:	30 00 e0 38 	li      r7,48
    10000a54:	40 00 00 39 	li      r8,64
    10000a58:	a8 81 63 38 	addi    r3,r3,-32344
    10000a5c:	50 00 20 39 	li      r9,80
    10000a60:	60 00 40 39 	li      r10,96
    10000a64:	88 ff 41 fa 	std     r18,-120(r1)
    10000a68:	90 ff 61 fa 	std     r19,-112(r1)
    10000a6c:	98 ff 81 fa 	std     r20,-104(r1)
    10000a70:	a0 ff a1 fa 	std     r21,-96(r1)
    10000a74:	70 00 60 39 	li      r11,112
    10000a78:	80 00 80 39 	li      r12,128
    10000a7c:	90 00 00 38 	li      r0,144
    10000a80:	90 07 e0 39 	li      r15,1936
    10000a84:	94 07 00 3a 	li      r16,1940
    10000a88:	98 07 20 3a 	li      r17,1944
    10000a8c:	a8 ff c1 fa 	std     r22,-88(r1)
    10000a90:	b0 ff e1 fa 	std     r23,-80(r1)
    10000a94:	b8 ff 01 fb 	std     r24,-72(r1)
    10000a98:	d8 ff 81 fb 	std     r28,-40(r1)
    10000a9c:	00 00 80 3b 	li      r28,0
    10000aa0:	9c 07 40 3a 	li      r18,1948
    10000aa4:	a0 07 60 3a 	li      r19,1952
    10000aa8:	a4 07 80 3a 	li      r20,1956
    10000aac:	a8 07 a0 3a 	li      r21,1960
    10000ab0:	ac 07 c0 3a 	li      r22,1964
    10000ab4:	e0 ff a1 fb 	std     r29,-32(r1)
    10000ab8:	e8 ff c1 fb 	std     r30,-24(r1)
    10000abc:	a0 00 c0 3b 	li      r30,160
    10000ac0:	b0 00 a0 3b 	li      r29,176
    10000ac4:	60 ff 61 f8 	std     r3,-160(r1)
    10000ac8:	a8 81 62 38 	addi    r3,r2,-32344
    10000acc:	b0 07 e0 3a 	li      r23,1968
    10000ad0:	b4 07 00 3b 	li      r24,1972
    10000ad4:	c0 ff 21 fb 	std     r25,-64(r1)
    10000ad8:	c8 ff 41 fb 	std     r26,-56(r1)
    10000adc:	d0 ff 61 fb 	std     r27,-48(r1)
    10000ae0:	f0 ff e1 fb 	std     r31,-16(r1)
    10000ae4:	50 ff 61 f8 	std     r3,-176(r1)
    10000ae8:	f8 ff e1 db 	stfd    f31,-8(r1)
    10000aec:	40 ff c1 f9 	std     r14,-192(r1)
    10000af0:	40 ff 61 e8 	ld      r3,-192(r1)
    10000af4:	24 5d 84 7b 	rldicr  r4,r28,11,52
    10000af8:	00 00 20 3b 	li      r25,0
    10000afc:	48 ff 81 fb 	std     r28,-184(r1)
    10000b00:	58 ff 81 f8 	std     r4,-168(r1)
    10000b04:	14 22 e3 7f 	add     r31,r3,r4
    10000b08:	60 ff 61 e8 	ld      r3,-160(r1)
    10000b0c:	00 00 00 60 	nop
    10000b10:	50 ff 81 eb 	ld      r28,-176(r1)
    10000b14:	58 ff 81 e8 	ld      r4,-168(r1)
    10000b18:	64 17 3b 7b 	rldicr  r27,r25,2,61
    10000b1c:	14 22 9c 7f 	add     r28,r28,r4
    10000b20:	2e dc 1c 7c 	lfsx    f0,r28,r27
    10000b24:	0a 00 80 3b 	li      r28,10
    10000b28:	a6 03 89 7f 	mtctr   r28
    10000b2c:	00 00 80 3b 	li      r28,0
    10000b30:	2c 04 20 f0 	xscvdpspn vs1,vs0
    10000b34:	90 0a 20 f0 	xxspltw vs1,vs1,0
    10000b38:	00 00 00 60 	nop
    10000b3c:	00 00 00 60 	nop
    10000b40:	14 e2 63 7f 	add     r27,r3,r28
    10000b44:	98 e6 43 7c 	lxvd2x  vs2,r3,r28
    10000b48:	98 e6 6e 7d 	lxvd2x  vs11,r14,r28
    10000b4c:	98 2e 7b 7c 	lxvd2x  vs3,r27,r5
    10000b50:	98 36 9b 7c 	lxvd2x  vs4,r27,r6
    10000b54:	98 3e bb 7c 	lxvd2x  vs5,r27,r7
    10000b58:	98 5e db 7c 	lxvd2x  vs6,r27,r11
    10000b5c:	51 12 42 f0 	xxswapd vs34,vs2
    10000b60:	98 46 5b 7c 	lxvd2x  vs2,r27,r8
    10000b64:	98 66 fb 7c 	lxvd2x  vs7,r27,r12
    10000b68:	51 5a 0b f0 	xxswapd vs32,vs11
    10000b6c:	51 1a 63 f0 	xxswapd vs35,vs3
    10000b70:	98 4e 7b 7c 	lxvd2x  vs3,r27,r9
    10000b74:	51 22 84 f0 	xxswapd vs36,vs4
    10000b78:	98 56 9b 7c 	lxvd2x  vs4,r27,r10
    10000b7c:	51 2a a5 f0 	xxswapd vs37,vs5
    10000b80:	98 06 1b 7d 	lxvd2x  vs8,r27,r0
    10000b84:	98 f6 3b 7d 	lxvd2x  vs9,r27,r30
    10000b88:	82 12 a1 f0 	xvmulsp vs5,vs1,vs34
    10000b8c:	51 12 42 f0 	xxswapd vs34,vs2
    10000b90:	98 ee 5b 7d 	lxvd2x  vs10,r27,r29
    10000b94:	14 e2 6e 7f 	add     r27,r14,r28
    10000b98:	82 1a 41 f0 	xvmulsp vs2,vs1,vs35
    10000b9c:	51 1a 63 f0 	xxswapd vs35,vs3
    10000ba0:	98 2e 9b 7d 	lxvd2x  vs12,r27,r5
    10000ba4:	98 36 bb 7d 	lxvd2x  vs13,r27,r6
    10000ba8:	82 22 61 f0 	xvmulsp vs3,vs1,vs36
    10000bac:	51 22 84 f0 	xxswapd vs36,vs4
    10000bb0:	82 2a 81 f0 	xvmulsp vs4,vs1,vs37
    10000bb4:	51 32 a6 f0 	xxswapd vs37,vs6
    10000bb8:	82 12 c1 f0 	xvmulsp vs6,vs1,vs34
    10000bbc:	51 3a 47 f0 	xxswapd vs34,vs7
    10000bc0:	82 1a e1 f0 	xvmulsp vs7,vs1,vs35
    10000bc4:	51 42 68 f0 	xxswapd vs35,vs8
    10000bc8:	82 22 01 f1 	xvmulsp vs8,vs1,vs36
    10000bcc:	51 4a 89 f0 	xxswapd vs36,vs9
    10000bd0:	82 2a 21 f1 	xvmulsp vs9,vs1,vs37
    10000bd4:	51 52 aa f0 	xxswapd vs37,vs10
    10000bd8:	82 12 41 f1 	xvmulsp vs10,vs1,vs34
    10000bdc:	99 3e 5b 7c 	lxvd2x  vs34,r27,r7
    10000be0:	51 62 2c f0 	xxswapd vs33,vs12
    10000be4:	82 1a 61 f1 	xvmulsp vs11,vs1,vs35
    10000be8:	99 46 7b 7c 	lxvd2x  vs35,r27,r8
    10000bec:	51 6a cd f0 	xxswapd vs38,vs13
    10000bf0:	82 22 81 f1 	xvmulsp vs12,vs1,vs36
    10000bf4:	99 4e 9b 7c 	lxvd2x  vs36,r27,r9
    10000bf8:	57 12 42 f0 	xxswapd vs34,vs34
    10000bfc:	82 2a a1 f1 	xvmulsp vs13,vs1,vs37
    10000c00:	99 56 bb 7c 	lxvd2x  vs37,r27,r10
    10000c04:	57 1a 63 f0 	xxswapd vs35,vs35
    10000c08:	04 2a a0 f0 	xvaddsp vs5,vs32,vs5
    10000c0c:	99 5e 1b 7c 	lxvd2x  vs32,r27,r11
    10000c10:	04 12 41 f0 	xvaddsp vs2,vs33,vs2
    10000c14:	99 66 3b 7c 	lxvd2x  vs33,r27,r12
    10000c18:	57 22 84 f0 	xxswapd vs36,vs36
    10000c1c:	04 1a 66 f0 	xvaddsp vs3,vs38,vs3
    10000c20:	99 06 db 7c 	lxvd2x  vs38,r27,r0
    10000c24:	57 2a a5 f0 	xxswapd vs37,vs37
    10000c28:	04 22 82 f0 	xvaddsp vs4,vs34,vs4
    10000c2c:	99 f6 5b 7c 	lxvd2x  vs34,r27,r30
    10000c30:	57 02 00 f0 	xxswapd vs32,vs32
    10000c34:	04 32 c3 f0 	xvaddsp vs6,vs35,vs6
    10000c38:	99 ee 7b 7c 	lxvd2x  vs35,r27,r29
    10000c3c:	57 0a 21 f0 	xxswapd vs33,vs33
    10000c40:	04 3a e4 f0 	xvaddsp vs7,vs36,vs7
    10000c44:	57 32 86 f0 	xxswapd vs36,vs38
    10000c48:	57 12 42 f0 	xxswapd vs34,vs34
    10000c4c:	04 42 05 f1 	xvaddsp vs8,vs37,vs8
    10000c50:	57 1a 63 f0 	xxswapd vs35,vs35
    10000c54:	04 4a 20 f1 	xvaddsp vs9,vs32,vs9
    10000c58:	04 52 41 f1 	xvaddsp vs10,vs33,vs10
    10000c5c:	50 2a a5 f0 	xxswapd vs5,vs5
    10000c60:	04 5a 64 f1 	xvaddsp vs11,vs36,vs11
    10000c64:	50 12 42 f0 	xxswapd vs2,vs2
    10000c68:	04 62 82 f1 	xvaddsp vs12,vs34,vs12
    10000c6c:	50 1a 63 f0 	xxswapd vs3,vs3
    10000c70:	04 6a a3 f1 	xvaddsp vs13,vs35,vs13
    10000c74:	50 22 84 f0 	xxswapd vs4,vs4
    10000c78:	50 32 c6 f0 	xxswapd vs6,vs6
    10000c7c:	50 3a e7 f0 	xxswapd vs7,vs7
    10000c80:	50 42 08 f1 	xxswapd vs8,vs8
    10000c84:	50 4a 29 f1 	xxswapd vs9,vs9
    10000c88:	50 52 4a f1 	xxswapd vs10,vs10
    10000c8c:	98 e7 ae 7c 	stxvd2x vs5,r14,r28
    10000c90:	c0 00 9c 3b 	addi    r28,r28,192
    10000c94:	50 5a 6b f1 	xxswapd vs11,vs11
    10000c98:	98 2f 5b 7c 	stxvd2x vs2,r27,r5
    10000c9c:	50 62 8c f1 	xxswapd vs12,vs12
    10000ca0:	98 37 7b 7c 	stxvd2x vs3,r27,r6
    10000ca4:	50 6a ad f1 	xxswapd vs13,vs13
    10000ca8:	98 3f 9b 7c 	stxvd2x vs4,r27,r7
    10000cac:	98 47 db 7c 	stxvd2x vs6,r27,r8
    10000cb0:	98 4f fb 7c 	stxvd2x vs7,r27,r9
    10000cb4:	98 57 1b 7d 	stxvd2x vs8,r27,r10
    10000cb8:	98 5f 3b 7d 	stxvd2x vs9,r27,r11
    10000cbc:	98 67 5b 7d 	stxvd2x vs10,r27,r12
    10000cc0:	98 07 7b 7d 	stxvd2x vs11,r27,r0
    10000cc4:	98 f7 9b 7d 	stxvd2x vs12,r27,r30
    10000cc8:	98 ef bb 7d 	stxvd2x vs13,r27,r29
    10000ccc:	74 fe 00 42 	bdnz    10000b40 <matmul+0x120>
    10000cd0:	60 ff 61 eb 	ld      r27,-160(r1)
    10000cd4:	24 5d 3c 7b 	rldicr  r28,r25,11,52
    10000cd8:	b8 07 40 3b 	li      r26,1976
    10000cdc:	01 00 39 3b 	addi    r25,r25,1
    10000ce0:	00 08 63 38 	addi    r3,r3,2048
    10000ce4:	00 02 39 28 	cmpldi  r25,512
    10000ce8:	14 e2 9b 7f 	add     r28,r27,r28
    10000cec:	88 07 60 3b 	li      r27,1928
    10000cf0:	80 07 3c c0 	lfs     f1,1920(r28)
    10000cf4:	84 07 5c c0 	lfs     f2,1924(r28)
    10000cf8:	88 07 7c c0 	lfs     f3,1928(r28)
    10000cfc:	8c 07 9c c0 	lfs     f4,1932(r28)
    10000d00:	80 08 20 f0 	xsmulsp vs1,vs0,vs1
    10000d04:	90 07 bc c0 	lfs     f5,1936(r28)
    10000d08:	80 10 40 f0 	xsmulsp vs2,vs0,vs2
    10000d0c:	94 07 dc c0 	lfs     f6,1940(r28)
    10000d10:	80 18 60 f0 	xsmulsp vs3,vs0,vs3
    10000d14:	98 07 fc c0 	lfs     f7,1944(r28)
    10000d18:	80 20 80 f0 	xsmulsp vs4,vs0,vs4
    10000d1c:	9c 07 1c c1 	lfs     f8,1948(r28)
    10000d20:	80 28 a0 f0 	xsmulsp vs5,vs0,vs5
    10000d24:	a0 07 3c c1 	lfs     f9,1952(r28)
    10000d28:	80 30 c0 f0 	xsmulsp vs6,vs0,vs6
    10000d2c:	a4 07 5c c1 	lfs     f10,1956(r28)
    10000d30:	80 38 e0 f0 	xsmulsp vs7,vs0,vs7
    10000d34:	a8 07 7c c1 	lfs     f11,1960(r28)
    10000d38:	80 40 00 f1 	xsmulsp vs8,vs0,vs8
    10000d3c:	ac 07 9c c1 	lfs     f12,1964(r28)
    10000d40:	80 48 20 f1 	xsmulsp vs9,vs0,vs9
    10000d44:	b0 07 bc c1 	lfs     f13,1968(r28)
    10000d48:	b4 07 80 38 	li      r4,1972
    10000d4c:	80 50 40 f1 	xsmulsp vs10,vs0,vs10
    10000d50:	19 24 5c 7c 	lxsspx  vs34,r28,r4
    10000d54:	b8 07 80 38 	li      r4,1976
    10000d58:	80 58 60 f1 	xsmulsp vs11,vs0,vs11
    10000d5c:	19 24 7c 7c 	lxsspx  vs35,r28,r4
    10000d60:	bc 07 80 38 	li      r4,1980
    10000d64:	80 60 80 f1 	xsmulsp vs12,vs0,vs12
    10000d68:	19 24 9c 7c 	lxsspx  vs36,r28,r4
    10000d6c:	c0 07 80 38 	li      r4,1984
    10000d70:	80 68 a0 f1 	xsmulsp vs13,vs0,vs13
    10000d74:	19 24 bc 7c 	lxsspx  vs37,r28,r4
    10000d78:	c4 07 80 38 	li      r4,1988
    10000d7c:	83 10 40 f0 	xsmulsp vs34,vs0,vs34
    10000d80:	19 24 1c 7c 	lxsspx  vs32,r28,r4
    10000d84:	c8 07 80 38 	li      r4,1992
    10000d88:	83 18 60 f0 	xsmulsp vs35,vs0,vs35
    10000d8c:	19 24 3c 7c 	lxsspx  vs33,r28,r4
    10000d90:	cc 07 80 38 	li      r4,1996
    10000d94:	83 20 80 f0 	xsmulsp vs36,vs0,vs36
    10000d98:	19 24 dc 7c 	lxsspx  vs38,r28,r4
    10000d9c:	d0 07 80 38 	li      r4,2000
    10000da0:	83 28 a0 f0 	xsmulsp vs37,vs0,vs37
    10000da4:	19 24 fc 7c 	lxsspx  vs39,r28,r4
    10000da8:	d4 07 80 38 	li      r4,2004
    10000dac:	83 00 00 f0 	xsmulsp vs32,vs0,vs32
    10000db0:	19 24 1c 7d 	lxsspx  vs40,r28,r4
    10000db4:	d8 07 80 38 	li      r4,2008
    10000db8:	83 08 20 f0 	xsmulsp vs33,vs0,vs33
    10000dbc:	19 24 3c 7d 	lxsspx  vs41,r28,r4
    10000dc0:	dc 07 80 38 	li      r4,2012
    10000dc4:	83 30 c0 f0 	xsmulsp vs38,vs0,vs38
    10000dc8:	19 24 5c 7d 	lxsspx  vs42,r28,r4
    10000dcc:	e0 07 80 38 	li      r4,2016
    10000dd0:	83 38 e0 f0 	xsmulsp vs39,vs0,vs39
    10000dd4:	19 24 7c 7d 	lxsspx  vs43,r28,r4
    10000dd8:	e4 07 80 38 	li      r4,2020
    10000ddc:	83 40 00 f1 	xsmulsp vs40,vs0,vs40
    10000de0:	19 24 9c 7d 	lxsspx  vs44,r28,r4
    10000de4:	e8 07 80 38 	li      r4,2024
    10000de8:	83 48 20 f1 	xsmulsp vs41,vs0,vs41
    10000dec:	19 24 bc 7d 	lxsspx  vs45,r28,r4
    10000df0:	ec 07 80 38 	li      r4,2028
    10000df4:	83 50 40 f1 	xsmulsp vs42,vs0,vs42
    10000df8:	19 24 dc 7d 	lxsspx  vs46,r28,r4
    10000dfc:	f0 07 80 38 	li      r4,2032
    10000e00:	83 58 60 f1 	xsmulsp vs43,vs0,vs43
    10000e04:	19 24 fc 7d 	lxsspx  vs47,r28,r4
    10000e08:	f4 07 80 38 	li      r4,2036
    10000e0c:	83 60 80 f1 	xsmulsp vs44,vs0,vs44
    10000e10:	19 24 1c 7e 	lxsspx  vs48,r28,r4
    10000e14:	f8 07 80 38 	li      r4,2040
    10000e18:	83 68 a0 f1 	xsmulsp vs45,vs0,vs45
    10000e1c:	19 24 3c 7e 	lxsspx  vs49,r28,r4
    10000e20:	fc 07 80 38 	li      r4,2044
    10000e24:	83 70 c0 f1 	xsmulsp vs46,vs0,vs46
    10000e28:	19 24 5c 7e 	lxsspx  vs50,r28,r4
    10000e2c:	80 07 80 3b 	li      r28,1920
    10000e30:	83 78 e0 f1 	xsmulsp vs47,vs0,vs47
    10000e34:	19 e4 7f 7e 	lxsspx  vs51,r31,r28
    10000e38:	83 80 00 f2 	xsmulsp vs48,vs0,vs48
    10000e3c:	84 07 ff c3 	lfs     f31,1924(r31)
    10000e40:	83 88 20 f2 	xsmulsp vs49,vs0,vs49
    10000e44:	8c 07 80 3b 	li      r28,1932
    10000e48:	82 90 00 f0 	xsmulsp vs0,vs0,vs50
    10000e4c:	19 dc 5f 7e 	lxsspx  vs50,r31,r27
    10000e50:	04 08 33 f0 	xsaddsp vs1,vs51,vs1
    10000e54:	19 e4 7f 7e 	lxsspx  vs51,r31,r28
    10000e58:	00 10 5f f0 	xsaddsp vs2,vs31,vs2
    10000e5c:	2e 7c ff 7f 	lfsx    f31,r31,r15
    10000e60:	04 18 72 f0 	xsaddsp vs3,vs50,vs3
    10000e64:	19 84 5f 7e 	lxsspx  vs50,r31,r16
    10000e68:	04 20 93 f0 	xsaddsp vs4,vs51,vs4
    10000e6c:	19 8c 7f 7e 	lxsspx  vs51,r31,r17
    10000e70:	00 28 bf f0 	xsaddsp vs5,vs31,vs5
    10000e74:	2e 94 ff 7f 	lfsx    f31,r31,r18
    10000e78:	04 30 d2 f0 	xsaddsp vs6,vs50,vs6
    10000e7c:	19 9c 5f 7e 	lxsspx  vs50,r31,r19
    10000e80:	04 38 f3 f0 	xsaddsp vs7,vs51,vs7
    10000e84:	19 a4 7f 7e 	lxsspx  vs51,r31,r20
    10000e88:	00 40 1f f1 	xsaddsp vs8,vs31,vs8
    10000e8c:	2e ac ff 7f 	lfsx    f31,r31,r21
    10000e90:	04 48 32 f1 	xsaddsp vs9,vs50,vs9
    10000e94:	19 b4 5f 7e 	lxsspx  vs50,r31,r22
    10000e98:	88 07 7f d0 	stfs    f3,1928(r31)
    10000e9c:	04 50 53 f1 	xsaddsp vs10,vs51,vs10
    10000ea0:	19 bc 7f 7e 	lxsspx  vs51,r31,r23
    10000ea4:	8c 07 9f d0 	stfs    f4,1932(r31)
    10000ea8:	b8 07 80 3b 	li      r28,1976
    10000eac:	00 58 7f f1 	xsaddsp vs11,vs31,vs11
    10000eb0:	2e c4 ff 7f 	lfsx    f31,r31,r24
    10000eb4:	2e 7d bf 7c 	stfsx   f5,r31,r15
    10000eb8:	04 60 92 f1 	xsaddsp vs12,vs50,vs12
    10000ebc:	19 d4 5f 7e 	lxsspx  vs50,r31,r26
    10000ec0:	bc 07 40 3b 	li      r26,1980
    10000ec4:	2e 85 df 7c 	stfsx   f6,r31,r16
    10000ec8:	04 68 b3 f1 	xsaddsp vs13,vs51,vs13
    10000ecc:	19 d4 7f 7e 	lxsspx  vs51,r31,r26
    10000ed0:	2e 8d ff 7c 	stfsx   f7,r31,r17
    10000ed4:	03 10 5f f0 	xsaddsp vs34,vs31,vs34
    10000ed8:	c0 07 ff c3 	lfs     f31,1984(r31)
    10000edc:	c4 07 40 3b 	li      r26,1988
    10000ee0:	2e 95 1f 7d 	stfsx   f8,r31,r18
    10000ee4:	07 18 72 f0 	xsaddsp vs35,vs50,vs35
    10000ee8:	19 d4 5f 7e 	lxsspx  vs50,r31,r26
    10000eec:	c8 07 40 3b 	li      r26,1992
    10000ef0:	2e 9d 3f 7d 	stfsx   f9,r31,r19
    10000ef4:	07 20 93 f0 	xsaddsp vs36,vs51,vs36
    10000ef8:	19 d4 7f 7e 	lxsspx  vs51,r31,r26
    10000efc:	2e a5 5f 7d 	stfsx   f10,r31,r20
    10000f00:	03 28 bf f0 	xsaddsp vs37,vs31,vs37
    10000f04:	cc 07 ff c3 	lfs     f31,1996(r31)
    10000f08:	d0 07 40 3b 	li      r26,2000
    10000f0c:	2e ad 7f 7d 	stfsx   f11,r31,r21
    10000f10:	07 00 12 f0 	xsaddsp vs32,vs50,vs32
    10000f14:	19 d4 5f 7e 	lxsspx  vs50,r31,r26
    10000f18:	d4 07 40 3b 	li      r26,2004
    10000f1c:	2e b5 9f 7d 	stfsx   f12,r31,r22
    10000f20:	07 08 33 f0 	xsaddsp vs33,vs51,vs33
    10000f24:	19 d4 7f 7e 	lxsspx  vs51,r31,r26
    10000f28:	2e bd bf 7d 	stfsx   f13,r31,r23
    10000f2c:	03 30 df f0 	xsaddsp vs38,vs31,vs38
    10000f30:	d8 07 ff c3 	lfs     f31,2008(r31)
    10000f34:	dc 07 40 3b 	li      r26,2012
    10000f38:	19 c5 5f 7c 	stxsspx vs34,r31,r24
    10000f3c:	07 38 f2 f0 	xsaddsp vs39,vs50,vs39
    10000f40:	19 d4 5f 7e 	lxsspx  vs50,r31,r26
    10000f44:	e0 07 40 3b 	li      r26,2016
    10000f48:	19 e5 7f 7c 	stxsspx vs35,r31,r28
    10000f4c:	bc 07 80 3b 	li      r28,1980
    10000f50:	07 40 13 f1 	xsaddsp vs40,vs51,vs40
    10000f54:	19 d4 7f 7e 	lxsspx  vs51,r31,r26
    10000f58:	19 e5 9f 7c 	stxsspx vs36,r31,r28
    10000f5c:	c0 07 80 3b 	li      r28,1984
    10000f60:	03 48 3f f1 	xsaddsp vs41,vs31,vs41
    10000f64:	e4 07 ff c3 	lfs     f31,2020(r31)
    10000f68:	e8 07 40 3b 	li      r26,2024
    10000f6c:	19 e5 bf 7c 	stxsspx vs37,r31,r28
    10000f70:	c4 07 80 3b 	li      r28,1988
    10000f74:	07 50 52 f1 	xsaddsp vs42,vs50,vs42
    10000f78:	19 d4 5f 7e 	lxsspx  vs50,r31,r26
    10000f7c:	ec 07 40 3b 	li      r26,2028
    10000f80:	19 e5 1f 7c 	stxsspx vs32,r31,r28
    10000f84:	c8 07 80 3b 	li      r28,1992
    10000f88:	07 58 73 f1 	xsaddsp vs43,vs51,vs43
    10000f8c:	19 d4 7f 7e 	lxsspx  vs51,r31,r26
    10000f90:	19 e5 3f 7c 	stxsspx vs33,r31,r28
    10000f94:	cc 07 80 3b 	li      r28,1996
    10000f98:	03 60 9f f1 	xsaddsp vs44,vs31,vs44
    10000f9c:	f0 07 ff c3 	lfs     f31,2032(r31)
    10000fa0:	f4 07 40 3b 	li      r26,2036
    10000fa4:	19 e5 df 7c 	stxsspx vs38,r31,r28
    10000fa8:	d0 07 80 3b 	li      r28,2000
    10000fac:	07 68 b2 f1 	xsaddsp vs45,vs50,vs45
    10000fb0:	19 d4 5f 7e 	lxsspx  vs50,r31,r26
    10000fb4:	f8 07 40 3b 	li      r26,2040
    10000fb8:	19 e5 ff 7c 	stxsspx vs39,r31,r28
    10000fbc:	d4 07 80 3b 	li      r28,2004
    10000fc0:	07 70 d3 f1 	xsaddsp vs46,vs51,vs46
    10000fc4:	19 d4 7f 7e 	lxsspx  vs51,r31,r26
    10000fc8:	19 e5 1f 7d 	stxsspx vs40,r31,r28
    10000fcc:	d8 07 80 3b 	li      r28,2008
    10000fd0:	03 78 ff f1 	xsaddsp vs47,vs31,vs47
    10000fd4:	fc 07 ff c3 	lfs     f31,2044(r31)
    10000fd8:	19 e5 3f 7d 	stxsspx vs41,r31,r28
    10000fdc:	dc 07 80 3b 	li      r28,2012
    10000fe0:	07 80 12 f2 	xsaddsp vs48,vs50,vs48
    10000fe4:	19 e5 5f 7d 	stxsspx vs42,r31,r28
    10000fe8:	e0 07 80 3b 	li      r28,2016
    10000fec:	07 88 33 f2 	xsaddsp vs49,vs51,vs49
    10000ff0:	19 e5 7f 7d 	stxsspx vs43,r31,r28
    10000ff4:	e4 07 80 3b 	li      r28,2020
    10000ff8:	00 00 1f f0 	xsaddsp vs0,vs31,vs0
    10000ffc:	19 e5 9f 7d 	stxsspx vs44,r31,r28
    10001000:	e8 07 80 3b 	li      r28,2024
    10001004:	19 e5 bf 7d 	stxsspx vs45,r31,r28
    10001008:	ec 07 80 3b 	li      r28,2028
    1000100c:	80 07 3f d0 	stfs    f1,1920(r31)
    10001010:	19 e5 df 7d 	stxsspx vs46,r31,r28
    10001014:	f0 07 80 3b 	li      r28,2032
    10001018:	84 07 5f d0 	stfs    f2,1924(r31)
    1000101c:	19 e5 ff 7d 	stxsspx vs47,r31,r28
    10001020:	f4 07 80 3b 	li      r28,2036
    10001024:	19 e5 1f 7e 	stxsspx vs48,r31,r28
    10001028:	f8 07 80 3b 	li      r28,2040
    1000102c:	19 e5 3f 7e 	stxsspx vs49,r31,r28
    10001030:	fc 07 1f d0 	stfs    f0,2044(r31)
    10001034:	dc fa 82 40 	bne     10000b10 <matmul+0xf0>
    10001038:	48 ff 81 eb 	ld      r28,-184(r1)
    1000103c:	00 08 ce 39 	addi    r14,r14,2048
    10001040:	01 00 9c 3b 	addi    r28,r28,1
    10001044:	00 02 3c 28 	cmpldi  r28,512
    10001048:	a8 fa 82 40 	bne     10000af0 <matmul+0xd0>
    1000104c:	f8 ff e1 cb 	lfd     f31,-8(r1)
    10001050:	f0 ff e1 eb 	ld      r31,-16(r1)
    10001054:	e8 ff c1 eb 	ld      r30,-24(r1)
    10001058:	e0 ff a1 eb 	ld      r29,-32(r1)
    1000105c:	d8 ff 81 eb 	ld      r28,-40(r1)
    10001060:	d0 ff 61 eb 	ld      r27,-48(r1)
    10001064:	c8 ff 41 eb 	ld      r26,-56(r1)
    10001068:	c0 ff 21 eb 	ld      r25,-64(r1)
    1000106c:	b8 ff 01 eb 	ld      r24,-72(r1)
    10001070:	b0 ff e1 ea 	ld      r23,-80(r1)
    10001074:	a8 ff c1 ea 	ld      r22,-88(r1)
    10001078:	a0 ff a1 ea 	ld      r21,-96(r1)
    1000107c:	98 ff 81 ea 	ld      r20,-104(r1)
    10001080:	90 ff 61 ea 	ld      r19,-112(r1)
    10001084:	88 ff 41 ea 	ld      r18,-120(r1)
    10001088:	80 ff 21 ea 	ld      r17,-128(r1)
    1000108c:	78 ff 01 ea 	ld      r16,-136(r1)
    10001090:	70 ff e1 e9 	ld      r15,-144(r1)
    10001094:	68 ff c1 e9 	ld      r14,-152(r1)
    10001098:	20 00 80 4e 	blr
	...
    100010a8:	00 00 00 60 	nop
    100010ac:	00 00 00 60 	nop

00000000100010b0 <init>:
    100010b0:	20 00 80 4e 	blr
	...

00000000100010c0 <output>:
    100010c0:	20 00 80 4e 	blr
	...

00000000100010d0 <main>:
    100010d0:	02 10 40 3c 	lis     r2,4098
    100010d4:	00 7f 42 38 	addi    r2,r2,32512
    100010d8:	20 00 62 3c 	addis   r3,r2,32
    100010dc:	68 ff c1 f9 	std     r14,-152(r1)
    100010e0:	00 00 00 60 	nop
    100010e4:	70 ff e1 f9 	std     r15,-144(r1)
    100010e8:	78 ff 01 fa 	std     r16,-136(r1)
    100010ec:	80 ff 21 fa 	std     r17,-128(r1)
    100010f0:	10 00 a0 38 	li      r5,16
    100010f4:	20 00 c0 38 	li      r6,32
    100010f8:	a8 81 c3 39 	addi    r14,r3,-32344
    100010fc:	10 00 62 3c 	addis   r3,r2,16
    10001100:	30 00 e0 38 	li      r7,48
    10001104:	40 00 00 39 	li      r8,64
    10001108:	a8 81 63 38 	addi    r3,r3,-32344
    1000110c:	50 00 20 39 	li      r9,80
    10001110:	60 00 40 39 	li      r10,96
    10001114:	88 ff 41 fa 	std     r18,-120(r1)
    10001118:	90 ff 61 fa 	std     r19,-112(r1)
    1000111c:	98 ff 81 fa 	std     r20,-104(r1)
    10001120:	a0 ff a1 fa 	std     r21,-96(r1)
    10001124:	70 00 60 39 	li      r11,112
    10001128:	80 00 80 39 	li      r12,128
    1000112c:	90 00 00 38 	li      r0,144
    10001130:	90 07 e0 39 	li      r15,1936
    10001134:	94 07 00 3a 	li      r16,1940
    10001138:	98 07 20 3a 	li      r17,1944
    1000113c:	a8 ff c1 fa 	std     r22,-88(r1)
    10001140:	b0 ff e1 fa 	std     r23,-80(r1)
    10001144:	b8 ff 01 fb 	std     r24,-72(r1)
    10001148:	d8 ff 81 fb 	std     r28,-40(r1)
    1000114c:	00 00 80 3b 	li      r28,0
    10001150:	9c 07 40 3a 	li      r18,1948
    10001154:	a0 07 60 3a 	li      r19,1952
    10001158:	a4 07 80 3a 	li      r20,1956
    1000115c:	a8 07 a0 3a 	li      r21,1960
    10001160:	ac 07 c0 3a 	li      r22,1964
    10001164:	e0 ff a1 fb 	std     r29,-32(r1)
    10001168:	e8 ff c1 fb 	std     r30,-24(r1)
    1000116c:	a0 00 c0 3b 	li      r30,160
    10001170:	b0 00 a0 3b 	li      r29,176
    10001174:	60 ff 61 f8 	std     r3,-160(r1)
    10001178:	a8 81 62 38 	addi    r3,r2,-32344
    1000117c:	b0 07 e0 3a 	li      r23,1968
    10001180:	b4 07 00 3b 	li      r24,1972
    10001184:	c0 ff 21 fb 	std     r25,-64(r1)
    10001188:	c8 ff 41 fb 	std     r26,-56(r1)
    1000118c:	d0 ff 61 fb 	std     r27,-48(r1)
    10001190:	f0 ff e1 fb 	std     r31,-16(r1)
    10001194:	50 ff 61 f8 	std     r3,-176(r1)
    10001198:	f8 ff e1 db 	stfd    f31,-8(r1)
    1000119c:	40 ff c1 f9 	std     r14,-192(r1)
    100011a0:	40 ff 61 e8 	ld      r3,-192(r1)
    100011a4:	24 5d 84 7b 	rldicr  r4,r28,11,52
    100011a8:	00 00 20 3b 	li      r25,0
    100011ac:	48 ff 81 fb 	std     r28,-184(r1)
    100011b0:	58 ff 81 f8 	std     r4,-168(r1)
    100011b4:	14 22 e3 7f 	add     r31,r3,r4
    100011b8:	60 ff 61 e8 	ld      r3,-160(r1)
    100011bc:	00 00 00 60 	nop
    100011c0:	50 ff 81 eb 	ld      r28,-176(r1)
    100011c4:	58 ff 81 e8 	ld      r4,-168(r1)
    100011c8:	64 17 3b 7b 	rldicr  r27,r25,2,61
    100011cc:	14 22 9c 7f 	add     r28,r28,r4
    100011d0:	2e dc 1c 7c 	lfsx    f0,r28,r27
    100011d4:	0a 00 80 3b 	li      r28,10
    100011d8:	a6 03 89 7f 	mtctr   r28
    100011dc:	00 00 80 3b 	li      r28,0
    100011e0:	2c 04 20 f0 	xscvdpspn vs1,vs0
    100011e4:	90 0a 20 f0 	xxspltw vs1,vs1,0
    100011e8:	00 00 00 60 	nop
    100011ec:	00 00 00 60 	nop
    100011f0:	00 00 00 60 	nop
    100011f4:	00 00 00 60 	nop
    100011f8:	00 00 00 60 	nop
    100011fc:	00 00 00 60 	nop
    10001200:	14 e2 63 7f 	add     r27,r3,r28
    10001204:	98 e6 43 7c 	lxvd2x  vs2,r3,r28
    10001208:	98 e6 6e 7d 	lxvd2x  vs11,r14,r28
    1000120c:	98 2e 7b 7c 	lxvd2x  vs3,r27,r5
    10001210:	98 36 9b 7c 	lxvd2x  vs4,r27,r6
    10001214:	98 3e bb 7c 	lxvd2x  vs5,r27,r7
    10001218:	98 5e db 7c 	lxvd2x  vs6,r27,r11
    1000121c:	51 12 42 f0 	xxswapd vs34,vs2
    10001220:	98 46 5b 7c 	lxvd2x  vs2,r27,r8
    10001224:	98 66 fb 7c 	lxvd2x  vs7,r27,r12
    10001228:	51 5a 0b f0 	xxswapd vs32,vs11
    1000122c:	51 1a 63 f0 	xxswapd vs35,vs3
    10001230:	98 4e 7b 7c 	lxvd2x  vs3,r27,r9
    10001234:	51 22 84 f0 	xxswapd vs36,vs4
    10001238:	98 56 9b 7c 	lxvd2x  vs4,r27,r10
    1000123c:	51 2a a5 f0 	xxswapd vs37,vs5
    10001240:	98 06 1b 7d 	lxvd2x  vs8,r27,r0
    10001244:	98 f6 3b 7d 	lxvd2x  vs9,r27,r30
    10001248:	82 12 a1 f0 	xvmulsp vs5,vs1,vs34
    1000124c:	51 12 42 f0 	xxswapd vs34,vs2
    10001250:	98 ee 5b 7d 	lxvd2x  vs10,r27,r29
    10001254:	14 e2 6e 7f 	add     r27,r14,r28
    10001258:	82 1a 41 f0 	xvmulsp vs2,vs1,vs35
    1000125c:	51 1a 63 f0 	xxswapd vs35,vs3
    10001260:	98 2e 9b 7d 	lxvd2x  vs12,r27,r5
    10001264:	98 36 bb 7d 	lxvd2x  vs13,r27,r6
    10001268:	82 22 61 f0 	xvmulsp vs3,vs1,vs36
    1000126c:	51 22 84 f0 	xxswapd vs36,vs4
    10001270:	82 2a 81 f0 	xvmulsp vs4,vs1,vs37
    10001274:	51 32 a6 f0 	xxswapd vs37,vs6
    10001278:	82 12 c1 f0 	xvmulsp vs6,vs1,vs34
    1000127c:	51 3a 47 f0 	xxswapd vs34,vs7
    10001280:	82 1a e1 f0 	xvmulsp vs7,vs1,vs35
    10001284:	51 42 68 f0 	xxswapd vs35,vs8
    10001288:	82 22 01 f1 	xvmulsp vs8,vs1,vs36
    1000128c:	51 4a 89 f0 	xxswapd vs36,vs9
    10001290:	82 2a 21 f1 	xvmulsp vs9,vs1,vs37
    10001294:	51 52 aa f0 	xxswapd vs37,vs10
    10001298:	82 12 41 f1 	xvmulsp vs10,vs1,vs34
    1000129c:	99 3e 5b 7c 	lxvd2x  vs34,r27,r7
    100012a0:	51 62 2c f0 	xxswapd vs33,vs12
    100012a4:	82 1a 61 f1 	xvmulsp vs11,vs1,vs35
    100012a8:	99 46 7b 7c 	lxvd2x  vs35,r27,r8
    100012ac:	51 6a cd f0 	xxswapd vs38,vs13
    100012b0:	82 22 81 f1 	xvmulsp vs12,vs1,vs36
    100012b4:	99 4e 9b 7c 	lxvd2x  vs36,r27,r9
    100012b8:	57 12 42 f0 	xxswapd vs34,vs34
    100012bc:	82 2a a1 f1 	xvmulsp vs13,vs1,vs37
    100012c0:	99 56 bb 7c 	lxvd2x  vs37,r27,r10
    100012c4:	57 1a 63 f0 	xxswapd vs35,vs35
    100012c8:	04 2a a0 f0 	xvaddsp vs5,vs32,vs5
    100012cc:	99 5e 1b 7c 	lxvd2x  vs32,r27,r11
    100012d0:	04 12 41 f0 	xvaddsp vs2,vs33,vs2
    100012d4:	99 66 3b 7c 	lxvd2x  vs33,r27,r12
    100012d8:	57 22 84 f0 	xxswapd vs36,vs36
    100012dc:	04 1a 66 f0 	xvaddsp vs3,vs38,vs3
    100012e0:	99 06 db 7c 	lxvd2x  vs38,r27,r0
    100012e4:	57 2a a5 f0 	xxswapd vs37,vs37
    100012e8:	04 22 82 f0 	xvaddsp vs4,vs34,vs4
    100012ec:	99 f6 5b 7c 	lxvd2x  vs34,r27,r30
    100012f0:	57 02 00 f0 	xxswapd vs32,vs32
    100012f4:	04 32 c3 f0 	xvaddsp vs6,vs35,vs6
    100012f8:	99 ee 7b 7c 	lxvd2x  vs35,r27,r29
    100012fc:	57 0a 21 f0 	xxswapd vs33,vs33
    10001300:	04 3a e4 f0 	xvaddsp vs7,vs36,vs7
    10001304:	57 32 86 f0 	xxswapd vs36,vs38
    10001308:	57 12 42 f0 	xxswapd vs34,vs34
    1000130c:	04 42 05 f1 	xvaddsp vs8,vs37,vs8
    10001310:	57 1a 63 f0 	xxswapd vs35,vs35
    10001314:	04 4a 20 f1 	xvaddsp vs9,vs32,vs9
    10001318:	04 52 41 f1 	xvaddsp vs10,vs33,vs10
    1000131c:	50 2a a5 f0 	xxswapd vs5,vs5
    10001320:	04 5a 64 f1 	xvaddsp vs11,vs36,vs11
    10001324:	50 12 42 f0 	xxswapd vs2,vs2
    10001328:	04 62 82 f1 	xvaddsp vs12,vs34,vs12
    1000132c:	50 1a 63 f0 	xxswapd vs3,vs3
    10001330:	04 6a a3 f1 	xvaddsp vs13,vs35,vs13
    10001334:	50 22 84 f0 	xxswapd vs4,vs4
    10001338:	50 32 c6 f0 	xxswapd vs6,vs6
    1000133c:	50 3a e7 f0 	xxswapd vs7,vs7
    10001340:	50 42 08 f1 	xxswapd vs8,vs8
    10001344:	50 4a 29 f1 	xxswapd vs9,vs9
    10001348:	50 52 4a f1 	xxswapd vs10,vs10
    1000134c:	98 e7 ae 7c 	stxvd2x vs5,r14,r28
    10001350:	c0 00 9c 3b 	addi    r28,r28,192
    10001354:	50 5a 6b f1 	xxswapd vs11,vs11
    10001358:	98 2f 5b 7c 	stxvd2x vs2,r27,r5
    1000135c:	50 62 8c f1 	xxswapd vs12,vs12
    10001360:	98 37 7b 7c 	stxvd2x vs3,r27,r6
    10001364:	50 6a ad f1 	xxswapd vs13,vs13
    10001368:	98 3f 9b 7c 	stxvd2x vs4,r27,r7
    1000136c:	98 47 db 7c 	stxvd2x vs6,r27,r8
    10001370:	98 4f fb 7c 	stxvd2x vs7,r27,r9
    10001374:	98 57 1b 7d 	stxvd2x vs8,r27,r10
    10001378:	98 5f 3b 7d 	stxvd2x vs9,r27,r11
    1000137c:	98 67 5b 7d 	stxvd2x vs10,r27,r12
    10001380:	98 07 7b 7d 	stxvd2x vs11,r27,r0
    10001384:	98 f7 9b 7d 	stxvd2x vs12,r27,r30
    10001388:	98 ef bb 7d 	stxvd2x vs13,r27,r29
    1000138c:	74 fe 00 42 	bdnz    10001200 <main+0x130>
    10001390:	60 ff 61 eb 	ld      r27,-160(r1)
    10001394:	24 5d 3c 7b 	rldicr  r28,r25,11,52
    10001398:	b8 07 40 3b 	li      r26,1976
    1000139c:	01 00 39 3b 	addi    r25,r25,1
    100013a0:	00 08 63 38 	addi    r3,r3,2048
    100013a4:	00 02 39 28 	cmpldi  r25,512
    100013a8:	14 e2 9b 7f 	add     r28,r27,r28
    100013ac:	88 07 60 3b 	li      r27,1928
    100013b0:	80 07 3c c0 	lfs     f1,1920(r28)
    100013b4:	84 07 5c c0 	lfs     f2,1924(r28)
    100013b8:	88 07 7c c0 	lfs     f3,1928(r28)
    100013bc:	8c 07 9c c0 	lfs     f4,1932(r28)
    100013c0:	80 08 20 f0 	xsmulsp vs1,vs0,vs1
    100013c4:	90 07 bc c0 	lfs     f5,1936(r28)
    100013c8:	80 10 40 f0 	xsmulsp vs2,vs0,vs2
    100013cc:	94 07 dc c0 	lfs     f6,1940(r28)
    100013d0:	80 18 60 f0 	xsmulsp vs3,vs0,vs3
    100013d4:	98 07 fc c0 	lfs     f7,1944(r28)
    100013d8:	80 20 80 f0 	xsmulsp vs4,vs0,vs4
    100013dc:	9c 07 1c c1 	lfs     f8,1948(r28)
    100013e0:	80 28 a0 f0 	xsmulsp vs5,vs0,vs5
    100013e4:	a0 07 3c c1 	lfs     f9,1952(r28)
    100013e8:	80 30 c0 f0 	xsmulsp vs6,vs0,vs6
    100013ec:	a4 07 5c c1 	lfs     f10,1956(r28)
    100013f0:	80 38 e0 f0 	xsmulsp vs7,vs0,vs7
    100013f4:	a8 07 7c c1 	lfs     f11,1960(r28)
    100013f8:	80 40 00 f1 	xsmulsp vs8,vs0,vs8
    100013fc:	ac 07 9c c1 	lfs     f12,1964(r28)
    10001400:	80 48 20 f1 	xsmulsp vs9,vs0,vs9
    10001404:	b0 07 bc c1 	lfs     f13,1968(r28)
    10001408:	b4 07 80 38 	li      r4,1972
    1000140c:	80 50 40 f1 	xsmulsp vs10,vs0,vs10
    10001410:	19 24 5c 7c 	lxsspx  vs34,r28,r4
    10001414:	b8 07 80 38 	li      r4,1976
    10001418:	80 58 60 f1 	xsmulsp vs11,vs0,vs11
    1000141c:	19 24 7c 7c 	lxsspx  vs35,r28,r4
    10001420:	bc 07 80 38 	li      r4,1980
    10001424:	80 60 80 f1 	xsmulsp vs12,vs0,vs12
    10001428:	19 24 9c 7c 	lxsspx  vs36,r28,r4
    1000142c:	c0 07 80 38 	li      r4,1984
    10001430:	80 68 a0 f1 	xsmulsp vs13,vs0,vs13
    10001434:	19 24 bc 7c 	lxsspx  vs37,r28,r4
    10001438:	c4 07 80 38 	li      r4,1988
    1000143c:	83 10 40 f0 	xsmulsp vs34,vs0,vs34
    10001440:	19 24 1c 7c 	lxsspx  vs32,r28,r4
    10001444:	c8 07 80 38 	li      r4,1992
    10001448:	83 18 60 f0 	xsmulsp vs35,vs0,vs35
    1000144c:	19 24 3c 7c 	lxsspx  vs33,r28,r4
    10001450:	cc 07 80 38 	li      r4,1996
    10001454:	83 20 80 f0 	xsmulsp vs36,vs0,vs36
    10001458:	19 24 dc 7c 	lxsspx  vs38,r28,r4
    1000145c:	d0 07 80 38 	li      r4,2000
    10001460:	83 28 a0 f0 	xsmulsp vs37,vs0,vs37
    10001464:	19 24 fc 7c 	lxsspx  vs39,r28,r4
    10001468:	d4 07 80 38 	li      r4,2004
    1000146c:	83 00 00 f0 	xsmulsp vs32,vs0,vs32
    10001470:	19 24 1c 7d 	lxsspx  vs40,r28,r4
    10001474:	d8 07 80 38 	li      r4,2008
    10001478:	83 08 20 f0 	xsmulsp vs33,vs0,vs33
    1000147c:	19 24 3c 7d 	lxsspx  vs41,r28,r4
    10001480:	dc 07 80 38 	li      r4,2012
    10001484:	83 30 c0 f0 	xsmulsp vs38,vs0,vs38
    10001488:	19 24 5c 7d 	lxsspx  vs42,r28,r4
    1000148c:	e0 07 80 38 	li      r4,2016
    10001490:	83 38 e0 f0 	xsmulsp vs39,vs0,vs39
    10001494:	19 24 7c 7d 	lxsspx  vs43,r28,r4
    10001498:	e4 07 80 38 	li      r4,2020
    1000149c:	83 40 00 f1 	xsmulsp vs40,vs0,vs40
    100014a0:	19 24 9c 7d 	lxsspx  vs44,r28,r4
    100014a4:	e8 07 80 38 	li      r4,2024
    100014a8:	83 48 20 f1 	xsmulsp vs41,vs0,vs41
    100014ac:	19 24 bc 7d 	lxsspx  vs45,r28,r4
    100014b0:	ec 07 80 38 	li      r4,2028
    100014b4:	83 50 40 f1 	xsmulsp vs42,vs0,vs42
    100014b8:	19 24 dc 7d 	lxsspx  vs46,r28,r4
    100014bc:	f0 07 80 38 	li      r4,2032
    100014c0:	83 58 60 f1 	xsmulsp vs43,vs0,vs43
    100014c4:	19 24 fc 7d 	lxsspx  vs47,r28,r4
    100014c8:	f4 07 80 38 	li      r4,2036
    100014cc:	83 60 80 f1 	xsmulsp vs44,vs0,vs44
    100014d0:	19 24 1c 7e 	lxsspx  vs48,r28,r4
    100014d4:	f8 07 80 38 	li      r4,2040
    100014d8:	83 68 a0 f1 	xsmulsp vs45,vs0,vs45
    100014dc:	19 24 3c 7e 	lxsspx  vs49,r28,r4
    100014e0:	fc 07 80 38 	li      r4,2044
    100014e4:	83 70 c0 f1 	xsmulsp vs46,vs0,vs46
    100014e8:	19 24 5c 7e 	lxsspx  vs50,r28,r4
    100014ec:	80 07 80 3b 	li      r28,1920
    100014f0:	83 78 e0 f1 	xsmulsp vs47,vs0,vs47
    100014f4:	19 e4 7f 7e 	lxsspx  vs51,r31,r28
    100014f8:	83 80 00 f2 	xsmulsp vs48,vs0,vs48
    100014fc:	84 07 ff c3 	lfs     f31,1924(r31)
    10001500:	83 88 20 f2 	xsmulsp vs49,vs0,vs49
    10001504:	8c 07 80 3b 	li      r28,1932
    10001508:	82 90 00 f0 	xsmulsp vs0,vs0,vs50
    1000150c:	19 dc 5f 7e 	lxsspx  vs50,r31,r27
    10001510:	04 08 33 f0 	xsaddsp vs1,vs51,vs1
    10001514:	19 e4 7f 7e 	lxsspx  vs51,r31,r28
    10001518:	00 10 5f f0 	xsaddsp vs2,vs31,vs2
    1000151c:	2e 7c ff 7f 	lfsx    f31,r31,r15
    10001520:	04 18 72 f0 	xsaddsp vs3,vs50,vs3
    10001524:	19 84 5f 7e 	lxsspx  vs50,r31,r16
    10001528:	04 20 93 f0 	xsaddsp vs4,vs51,vs4
    1000152c:	19 8c 7f 7e 	lxsspx  vs51,r31,r17
    10001530:	00 28 bf f0 	xsaddsp vs5,vs31,vs5
    10001534:	2e 94 ff 7f 	lfsx    f31,r31,r18
    10001538:	04 30 d2 f0 	xsaddsp vs6,vs50,vs6
    1000153c:	19 9c 5f 7e 	lxsspx  vs50,r31,r19
    10001540:	04 38 f3 f0 	xsaddsp vs7,vs51,vs7
    10001544:	19 a4 7f 7e 	lxsspx  vs51,r31,r20
    10001548:	00 40 1f f1 	xsaddsp vs8,vs31,vs8
    1000154c:	2e ac ff 7f 	lfsx    f31,r31,r21
    10001550:	04 48 32 f1 	xsaddsp vs9,vs50,vs9
    10001554:	19 b4 5f 7e 	lxsspx  vs50,r31,r22
    10001558:	88 07 7f d0 	stfs    f3,1928(r31)
    1000155c:	04 50 53 f1 	xsaddsp vs10,vs51,vs10
    10001560:	19 bc 7f 7e 	lxsspx  vs51,r31,r23
    10001564:	8c 07 9f d0 	stfs    f4,1932(r31)
    10001568:	b8 07 80 3b 	li      r28,1976
    1000156c:	00 58 7f f1 	xsaddsp vs11,vs31,vs11
    10001570:	2e c4 ff 7f 	lfsx    f31,r31,r24
    10001574:	2e 7d bf 7c 	stfsx   f5,r31,r15
    10001578:	04 60 92 f1 	xsaddsp vs12,vs50,vs12
    1000157c:	19 d4 5f 7e 	lxsspx  vs50,r31,r26
    10001580:	bc 07 40 3b 	li      r26,1980
    10001584:	2e 85 df 7c 	stfsx   f6,r31,r16
    10001588:	04 68 b3 f1 	xsaddsp vs13,vs51,vs13
    1000158c:	19 d4 7f 7e 	lxsspx  vs51,r31,r26
    10001590:	2e 8d ff 7c 	stfsx   f7,r31,r17
    10001594:	03 10 5f f0 	xsaddsp vs34,vs31,vs34
    10001598:	c0 07 ff c3 	lfs     f31,1984(r31)
    1000159c:	c4 07 40 3b 	li      r26,1988
    100015a0:	2e 95 1f 7d 	stfsx   f8,r31,r18
    100015a4:	07 18 72 f0 	xsaddsp vs35,vs50,vs35
    100015a8:	19 d4 5f 7e 	lxsspx  vs50,r31,r26
    100015ac:	c8 07 40 3b 	li      r26,1992
    100015b0:	2e 9d 3f 7d 	stfsx   f9,r31,r19
    100015b4:	07 20 93 f0 	xsaddsp vs36,vs51,vs36
    100015b8:	19 d4 7f 7e 	lxsspx  vs51,r31,r26
    100015bc:	2e a5 5f 7d 	stfsx   f10,r31,r20
    100015c0:	03 28 bf f0 	xsaddsp vs37,vs31,vs37
    100015c4:	cc 07 ff c3 	lfs     f31,1996(r31)
    100015c8:	d0 07 40 3b 	li      r26,2000
    100015cc:	2e ad 7f 7d 	stfsx   f11,r31,r21
    100015d0:	07 00 12 f0 	xsaddsp vs32,vs50,vs32
    100015d4:	19 d4 5f 7e 	lxsspx  vs50,r31,r26
    100015d8:	d4 07 40 3b 	li      r26,2004
    100015dc:	2e b5 9f 7d 	stfsx   f12,r31,r22
    100015e0:	07 08 33 f0 	xsaddsp vs33,vs51,vs33
    100015e4:	19 d4 7f 7e 	lxsspx  vs51,r31,r26
    100015e8:	2e bd bf 7d 	stfsx   f13,r31,r23
    100015ec:	03 30 df f0 	xsaddsp vs38,vs31,vs38
    100015f0:	d8 07 ff c3 	lfs     f31,2008(r31)
    100015f4:	dc 07 40 3b 	li      r26,2012
    100015f8:	19 c5 5f 7c 	stxsspx vs34,r31,r24
    100015fc:	07 38 f2 f0 	xsaddsp vs39,vs50,vs39
    10001600:	19 d4 5f 7e 	lxsspx  vs50,r31,r26
    10001604:	e0 07 40 3b 	li      r26,2016
    10001608:	19 e5 7f 7c 	stxsspx vs35,r31,r28
    1000160c:	bc 07 80 3b 	li      r28,1980
    10001610:	07 40 13 f1 	xsaddsp vs40,vs51,vs40
    10001614:	19 d4 7f 7e 	lxsspx  vs51,r31,r26
    10001618:	19 e5 9f 7c 	stxsspx vs36,r31,r28
    1000161c:	c0 07 80 3b 	li      r28,1984
    10001620:	03 48 3f f1 	xsaddsp vs41,vs31,vs41
    10001624:	e4 07 ff c3 	lfs     f31,2020(r31)
    10001628:	e8 07 40 3b 	li      r26,2024
    1000162c:	19 e5 bf 7c 	stxsspx vs37,r31,r28
    10001630:	c4 07 80 3b 	li      r28,1988
    10001634:	07 50 52 f1 	xsaddsp vs42,vs50,vs42
    10001638:	19 d4 5f 7e 	lxsspx  vs50,r31,r26
    1000163c:	ec 07 40 3b 	li      r26,2028
    10001640:	19 e5 1f 7c 	stxsspx vs32,r31,r28
    10001644:	c8 07 80 3b 	li      r28,1992
    10001648:	07 58 73 f1 	xsaddsp vs43,vs51,vs43
    1000164c:	19 d4 7f 7e 	lxsspx  vs51,r31,r26
    10001650:	19 e5 3f 7c 	stxsspx vs33,r31,r28
    10001654:	cc 07 80 3b 	li      r28,1996
    10001658:	03 60 9f f1 	xsaddsp vs44,vs31,vs44
    1000165c:	f0 07 ff c3 	lfs     f31,2032(r31)
    10001660:	f4 07 40 3b 	li      r26,2036
    10001664:	19 e5 df 7c 	stxsspx vs38,r31,r28
    10001668:	d0 07 80 3b 	li      r28,2000
    1000166c:	07 68 b2 f1 	xsaddsp vs45,vs50,vs45
    10001670:	19 d4 5f 7e 	lxsspx  vs50,r31,r26
    10001674:	f8 07 40 3b 	li      r26,2040
    10001678:	19 e5 ff 7c 	stxsspx vs39,r31,r28
    1000167c:	d4 07 80 3b 	li      r28,2004
    10001680:	07 70 d3 f1 	xsaddsp vs46,vs51,vs46
    10001684:	19 d4 7f 7e 	lxsspx  vs51,r31,r26
    10001688:	19 e5 1f 7d 	stxsspx vs40,r31,r28
    1000168c:	d8 07 80 3b 	li      r28,2008
    10001690:	03 78 ff f1 	xsaddsp vs47,vs31,vs47
    10001694:	fc 07 ff c3 	lfs     f31,2044(r31)
    10001698:	19 e5 3f 7d 	stxsspx vs41,r31,r28
    1000169c:	dc 07 80 3b 	li      r28,2012
    100016a0:	07 80 12 f2 	xsaddsp vs48,vs50,vs48
    100016a4:	19 e5 5f 7d 	stxsspx vs42,r31,r28
    100016a8:	e0 07 80 3b 	li      r28,2016
    100016ac:	07 88 33 f2 	xsaddsp vs49,vs51,vs49
    100016b0:	19 e5 7f 7d 	stxsspx vs43,r31,r28
    100016b4:	e4 07 80 3b 	li      r28,2020
    100016b8:	00 00 1f f0 	xsaddsp vs0,vs31,vs0
    100016bc:	19 e5 9f 7d 	stxsspx vs44,r31,r28
    100016c0:	e8 07 80 3b 	li      r28,2024
    100016c4:	19 e5 bf 7d 	stxsspx vs45,r31,r28
    100016c8:	ec 07 80 3b 	li      r28,2028
    100016cc:	80 07 3f d0 	stfs    f1,1920(r31)
    100016d0:	19 e5 df 7d 	stxsspx vs46,r31,r28
    100016d4:	f0 07 80 3b 	li      r28,2032
    100016d8:	84 07 5f d0 	stfs    f2,1924(r31)
    100016dc:	19 e5 ff 7d 	stxsspx vs47,r31,r28
    100016e0:	f4 07 80 3b 	li      r28,2036
    100016e4:	19 e5 1f 7e 	stxsspx vs48,r31,r28
    100016e8:	f8 07 80 3b 	li      r28,2040
    100016ec:	19 e5 3f 7e 	stxsspx vs49,r31,r28
    100016f0:	fc 07 1f d0 	stfs    f0,2044(r31)
    100016f4:	cc fa 82 40 	bne     100011c0 <main+0xf0>
    100016f8:	48 ff 81 eb 	ld      r28,-184(r1)
    100016fc:	00 08 ce 39 	addi    r14,r14,2048
    10001700:	01 00 9c 3b 	addi    r28,r28,1
    10001704:	00 02 3c 28 	cmpldi  r28,512
    10001708:	98 fa 82 40 	bne     100011a0 <main+0xd0>
    1000170c:	f8 ff e1 cb 	lfd     f31,-8(r1)
    10001710:	00 00 60 38 	li      r3,0
    10001714:	f0 ff e1 eb 	ld      r31,-16(r1)
    10001718:	e8 ff c1 eb 	ld      r30,-24(r1)
    1000171c:	e0 ff a1 eb 	ld      r29,-32(r1)
    10001720:	d8 ff 81 eb 	ld      r28,-40(r1)
    10001724:	d0 ff 61 eb 	ld      r27,-48(r1)
    10001728:	c8 ff 41 eb 	ld      r26,-56(r1)
    1000172c:	c0 ff 21 eb 	ld      r25,-64(r1)
    10001730:	b8 ff 01 eb 	ld      r24,-72(r1)
    10001734:	b0 ff e1 ea 	ld      r23,-80(r1)
    10001738:	a8 ff c1 ea 	ld      r22,-88(r1)
    1000173c:	a0 ff a1 ea 	ld      r21,-96(r1)
    10001740:	98 ff 81 ea 	ld      r20,-104(r1)
    10001744:	90 ff 61 ea 	ld      r19,-112(r1)
    10001748:	88 ff 41 ea 	ld      r18,-120(r1)
    1000174c:	80 ff 21 ea 	ld      r17,-128(r1)
    10001750:	78 ff 01 ea 	ld      r16,-136(r1)
    10001754:	70 ff e1 e9 	ld      r15,-144(r1)
    10001758:	68 ff c1 e9 	ld      r14,-152(r1)
    1000175c:	20 00 80 4e 	blr
	...

000000001000176c <tbr64>:
    1000176c:	a6 42 6c 7c 	mftb    r3
    10001770:	20 00 80 4e 	blr

0000000010001774 <tbr32>:
    10001774:	a6 42 0d 7c 	mftbu   r0
    10001778:	a6 42 8c 7c 	mftb    r4
    1000177c:	a6 42 6d 7c 	mftbu   r3
    10001780:	00 18 00 7c 	cmpw    r0,r3
    10001784:	20 00 c2 4d 	beqlr-
    10001788:	ec ff ff 4b 	b       10001774 <tbr32>
    1000178c:	00 00 00 60 	nop
    10001790:	00 00 00 60 	nop
    10001794:	00 00 00 60 	nop
    10001798:	00 00 00 60 	nop
    1000179c:	00 00 00 60 	nop

00000000100017a0 <init_timebase>:
    100017a0:	02 10 40 3c 	lis     r2,4098
    100017a4:	00 7f 42 38 	addi    r2,r2,32512
    100017a8:	a6 02 08 7c 	mflr    r0
    100017ac:	10 00 01 f8 	std     r0,16(r1)
    100017b0:	e1 de 21 f8 	stdu    r1,-8480(r1)
    100017b4:	78 20 c1 f9 	std     r14,8312(r1)
    100017b8:	80 20 e1 f9 	std     r15,8320(r1)
    100017bc:	88 20 01 fa 	std     r16,8328(r1)
    100017c0:	90 20 21 fa 	std     r17,8336(r1)
    100017c4:	98 20 41 fa 	std     r18,8344(r1)
    100017c8:	a0 20 61 fa 	std     r19,8352(r1)
    100017cc:	a8 20 81 fa 	std     r20,8360(r1)
    100017d0:	b0 20 a1 fa 	std     r21,8368(r1)
    100017d4:	b8 20 c1 fa 	std     r22,8376(r1)
    100017d8:	c0 20 e1 fa 	std     r23,8384(r1)
    100017dc:	c8 20 01 fb 	std     r24,8392(r1)
    100017e0:	d0 20 21 fb 	std     r25,8400(r1)
    100017e4:	d8 20 41 fb 	std     r26,8408(r1)
    100017e8:	e0 20 61 fb 	std     r27,8416(r1)
    100017ec:	e8 20 81 fb 	std     r28,8424(r1)
    100017f0:	f0 20 a1 fb 	std     r29,8432(r1)
    100017f4:	f8 20 c1 fb 	std     r30,8440(r1)
    100017f8:	08 21 a1 db 	stfd    f29,8456(r1)
    100017fc:	10 21 c1 db 	stfd    f30,8464(r1)
    10001800:	18 21 e1 db 	stfd    f31,8472(r1)
    10001804:	9d ef ff 4b 	bl      100007a0 <00000019.plt_call.__errno_location@@GLIBC_2.17>
    10001808:	18 00 41 e8 	ld      r2,24(r1)
    1000180c:	78 1b 7d 7c 	mr      r29,r3
    10001810:	00 00 60 38 	li      r3,0
    10001814:	fe ff 82 3c 	addis   r4,r2,-2
    10001818:	00 00 7d 90 	stw     r3,0(r29)
    1000181c:	fe ff 62 3c 	addis   r3,r2,-2
    10001820:	16 9f 84 38 	addi    r4,r4,-24810
    10001824:	08 9f c3 3b 	addi    r30,r3,-24824
    10001828:	78 f3 c3 7f 	mr      r3,r30
    1000182c:	f5 ef ff 4b 	bl      10000820 <00000019.plt_call.fopen@@GLIBC_2.17>
    10001830:	18 00 41 e8 	ld      r2,24(r1)
    10001834:	00 00 23 28 	cmpldi  r3,0
    10001838:	20 03 82 41 	beq     10001b58 <init_timebase+0x3b8>
    1000183c:	78 1b 7c 7c 	mr      r28,r3
    10001840:	78 00 61 38 	addi    r3,r1,120
    10001844:	00 20 80 38 	li      r4,8192
    10001848:	78 e3 85 7f 	mr      r5,r28
    1000184c:	75 ef ff 4b 	bl      100007c0 <00000019.plt_call.fgets_unlocked@@GLIBC_2.17>
    10001850:	18 00 41 e8 	ld      r2,24(r1)
    10001854:	00 00 23 28 	cmpldi  r3,0
    10001858:	68 02 82 41 	beq     10001ac0 <init_timebase+0x320>
    1000185c:	73 65 60 3c 	lis     r3,25971
    10001860:	fe ff 82 3c 	addis   r4,r2,-2
    10001864:	fe ff a2 3c 	addis   r5,r2,-2
    10001868:	00 00 00 60 	nop
    1000186c:	fe ff c2 3c 	addis   r6,r2,-2
    10001870:	00 00 00 60 	nop
    10001874:	fe ff 02 3d 	addis   r8,r2,-2
    10001878:	fe ff 42 3d 	addis   r10,r2,-2
    1000187c:	fe ff 62 3d 	addis   r11,r2,-2
    10001880:	fe ff 82 3d 	addis   r12,r2,-2
    10001884:	78 00 61 3b 	addi    r27,r1,120
    10001888:	00 00 40 3a 	li      r18,0
    1000188c:	70 00 41 3b 	addi    r26,r1,112
    10001890:	00 00 00 60 	nop
    10001894:	62 61 63 60 	ori     r3,r3,24930
    10001898:	28 80 22 ea 	ld      r17,-32728(r2)
    1000189c:	99 9f 26 3b 	addi    r25,r6,-24679
    100018a0:	a0 81 02 3a 	addi    r16,r2,-32352
    100018a4:	9d 9f 08 3b 	addi    r24,r8,-24675
    100018a8:	a1 9f ea 3a 	addi    r23,r10,-24671
    100018ac:	6e 9f cb 3a 	addi    r22,r11,-24722
    100018b0:	13 a0 ac 3a 	addi    r21,r12,-24557
    100018b4:	c6 07 63 78 	rldicr  r3,r3,32,31
    100018b8:	04 9f c4 c3 	lfs     f30,-24828(r4)
    100018bc:	00 9f a5 c3 	lfs     f29,-24832(r5)
    100018c0:	6d 65 63 64 	oris    r3,r3,25965
    100018c4:	74 69 6f 60 	ori     r15,r3,26996
    100018c8:	2c 00 00 48 	b       100018f4 <init_timebase+0x154>
    100018cc:	80 f1 ff f3 	xsmuldp vs31,vs31,vs30
    100018d0:	20 fd 00 f0 	xscvdpuxds vs0,vs31
    100018d4:	98 85 00 7c 	stxsdx  vs0,0,r16
    100018d8:	78 db 63 7f 	mr      r3,r27
    100018dc:	00 20 80 38 	li      r4,8192
    100018e0:	78 e3 85 7f 	mr      r5,r28
    100018e4:	dd ee ff 4b 	bl      100007c0 <00000019.plt_call.fgets_unlocked@@GLIBC_2.17>
    100018e8:	18 00 41 e8 	ld      r2,24(r1)
    100018ec:	00 00 23 28 	cmpldi  r3,0
    100018f0:	d0 01 82 41 	beq     10001ac0 <init_timebase+0x320>
    100018f4:	78 00 61 80 	lwz     r3,120(r1)
    100018f8:	6f 63 63 6c 	xoris   r3,r3,25455
    100018fc:	63 6c 03 28 	cmplwi  r3,27747
    10001900:	14 00 82 40 	bne     10001914 <init_timebase+0x174>
    10001904:	7c 00 61 88 	lbz     r3,124(r1)
    10001908:	6b 00 03 28 	cmplwi  r3,107
    1000190c:	00 00 60 38 	li      r3,0
    10001910:	08 00 82 41 	beq     10001918 <init_timebase+0x178>
    10001914:	01 00 60 38 	li      r3,1
    10001918:	00 00 03 28 	cmplwi  r3,0
    1000191c:	b4 00 82 41 	beq     100019d0 <init_timebase+0x230>
    10001920:	78 00 61 e8 	ld      r3,120(r1)
    10001924:	40 78 23 7c 	cmpld   r3,r15
    10001928:	b0 ff 82 40 	bne     100018d8 <init_timebase+0x138>
    1000192c:	78 db 63 7f 	mr      r3,r27
    10001930:	3a 00 80 38 	li      r4,58
    10001934:	ad ee ff 4b 	bl      100007e0 <00000019.plt_call.strchr@@GLIBC_2.17>
    10001938:	18 00 41 e8 	ld      r2,24(r1)
    1000193c:	00 00 23 28 	cmpldi  r3,0
    10001940:	98 ff 82 41 	beq     100018d8 <init_timebase+0x138>
    10001944:	78 1b 74 7c 	mr      r20,r3
    10001948:	b9 ed ff 4b 	bl      10000700 <00000019.plt_call.__ctype_b_loc@@GLIBC_2.17>
    1000194c:	18 00 41 e8 	ld      r2,24(r1)
    10001950:	00 00 63 e8 	ld      r3,0(r3)
    10001954:	00 00 00 60 	nop
    10001958:	00 00 00 60 	nop
    1000195c:	00 00 00 60 	nop
    10001960:	01 00 b4 8c 	lbzu    r5,1(r20)
    10001964:	a4 0f a4 78 	rldicr  r4,r5,1,62
    10001968:	00 00 a5 2c 	cmpdi   cr1,r5,0
    1000196c:	2e 22 83 7c 	lhzx    r4,r3,r4
    10001970:	00 08 84 70 	andi.   r4,r4,2048
    10001974:	02 31 82 4e 	crandc  4*cr5+lt,eq,4*cr1+eq
    10001978:	e8 ff 94 41 	blt     cr5,10001960 <init_timebase+0x1c0>
    1000197c:	00 00 04 28 	cmplwi  r4,0
    10001980:	60 01 82 41 	beq     10001ae0 <init_timebase+0x340>
    10001984:	78 a3 83 7e 	mr      r3,r20
    10001988:	00 00 80 38 	li      r4,0
    1000198c:	0a 00 a0 38 	li      r5,10
    10001990:	00 00 5d 92 	stw     r18,0(r29)
    10001994:	cd ee ff 4b 	bl      10000860 <00000019.plt_call.strtoll@@GLIBC_2.17>
    10001998:	18 00 41 e8 	ld      r2,24(r1)
    1000199c:	90 81 62 f8 	std     r3,-32368(r2)
    100019a0:	00 00 7d 80 	lwz     r3,0(r29)
    100019a4:	00 00 03 28 	cmplwi  r3,0
    100019a8:	30 ff 82 41 	beq     100018d8 <init_timebase+0x138>
    100019ac:	00 00 71 e8 	ld      r3,0(r17)
    100019b0:	78 ab a4 7e 	mr      r4,r21
    100019b4:	78 a3 85 7e 	mr      r5,r20
    100019b8:	69 ed ff 4b 	bl      10000720 <00000019.plt_call.fprintf@@GLIBC_2.17>
    100019bc:	18 00 41 e8 	ld      r2,24(r1)
    100019c0:	90 81 42 fa 	std     r18,-32368(r2)
    100019c4:	14 ff ff 4b 	b       100018d8 <init_timebase+0x138>
    100019c8:	00 00 00 60 	nop
    100019cc:	00 00 00 60 	nop
    100019d0:	78 db 63 7f 	mr      r3,r27
    100019d4:	3a 00 80 38 	li      r4,58
    100019d8:	09 ee ff 4b 	bl      100007e0 <00000019.plt_call.strchr@@GLIBC_2.17>
    100019dc:	18 00 41 e8 	ld      r2,24(r1)
    100019e0:	00 00 23 28 	cmpldi  r3,0
    100019e4:	3c ff 82 41 	beq     10001920 <init_timebase+0x180>
    100019e8:	78 1b 74 7c 	mr      r20,r3
    100019ec:	15 ed ff 4b 	bl      10000700 <00000019.plt_call.__ctype_b_loc@@GLIBC_2.17>
    100019f0:	18 00 41 e8 	ld      r2,24(r1)
    100019f4:	00 00 63 e8 	ld      r3,0(r3)
    100019f8:	00 00 00 60 	nop
    100019fc:	00 00 00 60 	nop
    10001a00:	01 00 b4 8c 	lbzu    r5,1(r20)
    10001a04:	a4 0f a4 78 	rldicr  r4,r5,1,62
    10001a08:	00 00 a5 2c 	cmpdi   cr1,r5,0
    10001a0c:	2e 22 83 7c 	lhzx    r4,r3,r4
    10001a10:	00 08 84 70 	andi.   r4,r4,2048
    10001a14:	02 31 82 4e 	crandc  4*cr5+lt,eq,4*cr1+eq
    10001a18:	e8 ff 94 41 	blt     cr5,10001a00 <init_timebase+0x260>
    10001a1c:	00 00 04 28 	cmplwi  r4,0
    10001a20:	b0 00 82 41 	beq     10001ad0 <init_timebase+0x330>
    10001a24:	78 a3 83 7e 	mr      r3,r20
    10001a28:	78 d3 44 7f 	mr      r4,r26
    10001a2c:	00 00 5d 92 	stw     r18,0(r29)
    10001a30:	31 ed ff 4b 	bl      10000760 <00000019.plt_call.strtod@@GLIBC_2.17>
    10001a34:	18 00 41 e8 	ld      r2,24(r1)
    10001a38:	00 00 7d 80 	lwz     r3,0(r29)
    10001a3c:	00 00 03 28 	cmplwi  r3,0
    10001a40:	4c 00 82 40 	bne     10001a8c <init_timebase+0x2ec>
    10001a44:	90 08 e0 ff 	fmr     f31,f1
    10001a48:	70 00 61 ea 	ld      r19,112(r1)
    10001a4c:	78 cb 24 7f 	mr      r4,r25
    10001a50:	03 00 a0 38 	li      r5,3
    10001a54:	78 9b 63 7e 	mr      r3,r19
    10001a58:	e9 ec ff 4b 	bl      10000740 <00000019.plt_call.strncmp@@GLIBC_2.17>
    10001a5c:	18 00 41 e8 	ld      r2,24(r1)
    10001a60:	00 00 03 28 	cmplwi  r3,0
    10001a64:	68 fe 82 41 	beq     100018cc <init_timebase+0x12c>
    10001a68:	78 9b 63 7e 	mr      r3,r19
    10001a6c:	78 c3 04 7f 	mr      r4,r24
    10001a70:	03 00 a0 38 	li      r5,3
    10001a74:	cd ec ff 4b 	bl      10000740 <00000019.plt_call.strncmp@@GLIBC_2.17>
    10001a78:	18 00 41 e8 	ld      r2,24(r1)
    10001a7c:	00 00 03 28 	cmplwi  r3,0
    10001a80:	28 00 82 40 	bne     10001aa8 <init_timebase+0x308>
    10001a84:	80 e9 ff f3 	xsmuldp vs31,vs31,vs29
    10001a88:	48 fe ff 4b 	b       100018d0 <init_timebase+0x130>
    10001a8c:	00 00 71 e8 	ld      r3,0(r17)
    10001a90:	78 b3 c4 7e 	mr      r4,r22
    10001a94:	78 a3 85 7e 	mr      r5,r20
    10001a98:	89 ec ff 4b 	bl      10000720 <00000019.plt_call.fprintf@@GLIBC_2.17>
    10001a9c:	18 00 41 e8 	ld      r2,24(r1)
    10001aa0:	d0 fc ff f3 	xxlxor  vs31,vs31,vs31
    10001aa4:	a4 ff ff 4b 	b       10001a48 <init_timebase+0x2a8>
    10001aa8:	00 00 71 e8 	ld      r3,0(r17)
    10001aac:	78 bb e4 7e 	mr      r4,r23
    10001ab0:	78 a3 85 7e 	mr      r5,r20
    10001ab4:	6d ec ff 4b 	bl      10000720 <00000019.plt_call.fprintf@@GLIBC_2.17>
    10001ab8:	18 00 41 e8 	ld      r2,24(r1)
    10001abc:	14 fe ff 4b 	b       100018d0 <init_timebase+0x130>
    10001ac0:	78 e3 83 7f 	mr      r3,r28
    10001ac4:	bd ed ff 4b 	bl      10000880 <00000019.plt_call.fclose@@GLIBC_2.17>
    10001ac8:	18 00 41 e8 	ld      r2,24(r1)
    10001acc:	2c 00 00 48 	b       10001af8 <init_timebase+0x358>
    10001ad0:	00 00 71 e8 	ld      r3,0(r17)
    10001ad4:	fe ff 82 3c 	addis   r4,r2,-2
    10001ad8:	3d 9f 84 38 	addi    r4,r4,-24771
    10001adc:	10 00 00 48 	b       10001aec <init_timebase+0x34c>
    10001ae0:	00 00 71 e8 	ld      r3,0(r17)
    10001ae4:	fe ff 82 3c 	addis   r4,r2,-2
    10001ae8:	df 9f 84 38 	addi    r4,r4,-24609
    10001aec:	78 f3 c5 7f 	mr      r5,r30
    10001af0:	31 ec ff 4b 	bl      10000720 <00000019.plt_call.fprintf@@GLIBC_2.17>
    10001af4:	18 00 41 e8 	ld      r2,24(r1)
    10001af8:	18 21 e1 cb 	lfd     f31,8472(r1)
    10001afc:	10 21 c1 cb 	lfd     f30,8464(r1)
    10001b00:	f8 20 c1 eb 	ld      r30,8440(r1)
    10001b04:	f0 20 a1 eb 	ld      r29,8432(r1)
    10001b08:	08 21 a1 cb 	lfd     f29,8456(r1)
    10001b0c:	e8 20 81 eb 	ld      r28,8424(r1)
    10001b10:	e0 20 61 eb 	ld      r27,8416(r1)
    10001b14:	d8 20 41 eb 	ld      r26,8408(r1)
    10001b18:	d0 20 21 eb 	ld      r25,8400(r1)
    10001b1c:	c8 20 01 eb 	ld      r24,8392(r1)
    10001b20:	c0 20 e1 ea 	ld      r23,8384(r1)
    10001b24:	b8 20 c1 ea 	ld      r22,8376(r1)
    10001b28:	b0 20 a1 ea 	ld      r21,8368(r1)
    10001b2c:	a8 20 81 ea 	ld      r20,8360(r1)
    10001b30:	a0 20 61 ea 	ld      r19,8352(r1)
    10001b34:	98 20 41 ea 	ld      r18,8344(r1)
    10001b38:	90 20 21 ea 	ld      r17,8336(r1)
    10001b3c:	88 20 01 ea 	ld      r16,8328(r1)
    10001b40:	80 20 e1 e9 	ld      r15,8320(r1)
    10001b44:	78 20 c1 e9 	ld      r14,8312(r1)
    10001b48:	20 21 21 38 	addi    r1,r1,8480
    10001b4c:	10 00 01 e8 	ld      r0,16(r1)
    10001b50:	a6 03 08 7c 	mtlr    r0
    10001b54:	20 00 80 4e 	blr
    10001b58:	00 00 00 60 	nop
    10001b5c:	fe ff 82 3c 	addis   r4,r2,-2
    10001b60:	78 f3 c5 7f 	mr      r5,r30
    10001b64:	28 80 a2 eb 	ld      r29,-32728(r2)
    10001b68:	18 9f 84 38 	addi    r4,r4,-24808
    10001b6c:	00 00 7d e8 	ld      r3,0(r29)
    10001b70:	b1 eb ff 4b 	bl      10000720 <00000019.plt_call.fprintf@@GLIBC_2.17>
    10001b74:	18 00 41 e8 	ld      r2,24(r1)
    10001b78:	00 00 60 38 	li      r3,0
    10001b7c:	c5 ec ff 4b 	bl      10000840 <00000019.plt_call.perror@@GLIBC_2.17>
    10001b80:	18 00 41 e8 	ld      r2,24(r1)
    10001b84:	00 00 9d e8 	ld      r4,0(r29)
    10001b88:	0a 00 60 38 	li      r3,10
    10001b8c:	f5 eb ff 4b 	bl      10000780 <00000019.plt_call.fputc@@GLIBC_2.17>
    10001b90:	18 00 41 e8 	ld      r2,24(r1)
    10001b94:	64 ff ff 4b 	b       10001af8 <init_timebase+0x358>
	...
    10001ba4:	00 00 00 60 	nop
    10001ba8:	00 00 00 60 	nop
    10001bac:	00 00 00 60 	nop

0000000010001bb0 <timebase>:
    10001bb0:	02 10 40 3c 	lis     r2,4098
    10001bb4:	00 7f 42 38 	addi    r2,r2,32512
    10001bb8:	a6 02 08 7c 	mflr    r0
    10001bbc:	10 00 01 f8 	std     r0,16(r1)
    10001bc0:	e1 ff 21 f8 	stdu    r1,-32(r1)
    10001bc4:	a9 fb ff 4b 	bl      1000176c <tbr64>
    10001bc8:	00 00 00 60 	nop
    10001bcc:	20 00 21 38 	addi    r1,r1,32
    10001bd0:	10 00 01 e8 	ld      r0,16(r1)
    10001bd4:	a6 03 08 7c 	mtlr    r0
    10001bd8:	20 00 80 4e 	blr
	...
    10001be8:	00 00 00 60 	nop
    10001bec:	00 00 00 60 	nop

0000000010001bf0 <timebase_sec>:
    10001bf0:	02 10 40 3c 	lis     r2,4098
    10001bf4:	00 7f 42 38 	addi    r2,r2,32512
    10001bf8:	a6 02 08 7c 	mflr    r0
    10001bfc:	10 00 01 f8 	std     r0,16(r1)
    10001c00:	e1 ff 21 f8 	stdu    r1,-32(r1)
    10001c04:	69 fb ff 4b 	bl      1000176c <tbr64>
    10001c08:	00 00 00 60 	nop
    10001c0c:	00 00 00 60 	nop
    10001c10:	66 01 03 7c 	mtvsrd  vs0,r3
    10001c14:	90 81 22 c8 	lfd     f1,-32368(r2)
    10001c18:	a0 05 00 f0 	xscvuxddp vs0,vs0
    10001c1c:	a0 0d 20 f0 	xscvuxddp vs1,vs1
    10001c20:	c0 09 20 f0 	xsdivdp vs1,vs0,vs1
    10001c24:	20 00 21 38 	addi    r1,r1,32
    10001c28:	10 00 01 e8 	ld      r0,16(r1)
    10001c2c:	a6 03 08 7c 	mtlr    r0
    10001c30:	20 00 80 4e 	blr
	...

0000000010001c40 <timebase_cycles>:
    10001c40:	02 10 40 3c 	lis     r2,4098
    10001c44:	00 7f 42 38 	addi    r2,r2,32512
    10001c48:	00 00 00 60 	nop
    10001c4c:	66 01 03 7c 	mtvsrd  vs0,r3
    10001c50:	00 00 00 60 	nop
    10001c54:	a0 81 22 c8 	lfd     f1,-32352(r2)
    10001c58:	a0 05 00 f0 	xscvuxddp vs0,vs0
    10001c5c:	90 81 42 c8 	lfd     f2,-32368(r2)
    10001c60:	a0 0d 20 f0 	xscvuxddp vs1,vs1
    10001c64:	80 09 00 f0 	xsmuldp vs0,vs0,vs1
    10001c68:	a0 15 20 f0 	xscvuxddp vs1,vs2
    10001c6c:	c0 09 20 f0 	xsdivdp vs1,vs0,vs1
    10001c70:	20 00 80 4e 	blr
	...

0000000010001c80 <__libc_csu_init>:
    10001c80:	02 10 40 3c 	lis     r2,4098
    10001c84:	00 7f 42 38 	addi    r2,r2,32512
    10001c88:	a6 02 08 7c 	mflr    r0
    10001c8c:	d0 ff 41 fb 	std     r26,-48(r1)
    10001c90:	d8 ff 61 fb 	std     r27,-40(r1)
    10001c94:	e0 ff 81 fb 	std     r28,-32(r1)
    10001c98:	e8 ff a1 fb 	std     r29,-24(r1)
    10001c9c:	f0 ff c1 fb 	std     r30,-16(r1)
    10001ca0:	10 00 01 f8 	std     r0,16(r1)
    10001ca4:	b1 ff 21 f8 	stdu    r1,-80(r1)
    10001ca8:	ff ff a2 3f 	addis   r29,r2,-1
    10001cac:	ff ff c2 3f 	addis   r30,r2,-1
    10001cb0:	e8 7d bd 3b 	addi    r29,r29,32232
    10001cb4:	e0 7d de 3b 	addi    r30,r30,32224
    10001cb8:	50 e8 be 7f 	subf    r29,r30,r29
    10001cbc:	78 1b 7c 7c 	mr      r28,r3
    10001cc0:	78 23 9b 7c 	mr      r27,r4
    10001cc4:	78 2b ba 7c 	mr      r26,r5
    10001cc8:	01 ea ff 4b 	bl      100006c8 <_init+0x8>
    10001ccc:	00 00 00 60 	nop
    10001cd0:	75 1e bd 7f 	sradi.  r29,r29,3
    10001cd4:	48 00 82 41 	beq     10001d1c <__libc_csu_init+0x9c>
    10001cd8:	18 00 41 f8 	std     r2,24(r1)
    10001cdc:	48 00 e1 fb 	std     r31,72(r1)
    10001ce0:	f8 ff de 3b 	addi    r30,r30,-8
    10001ce4:	00 00 e0 3b 	li      r31,0
    10001ce8:	00 00 00 60 	nop
    10001cec:	00 00 42 60 	ori     r2,r2,0
    10001cf0:	09 00 9e e9 	ldu     r12,8(r30)
    10001cf4:	78 d3 45 7f 	mr      r5,r26
    10001cf8:	78 db 64 7f 	mr      r4,r27
    10001cfc:	78 e3 83 7f 	mr      r3,r28
    10001d00:	01 00 ff 3b 	addi    r31,r31,1
    10001d04:	a6 03 89 7d 	mtctr   r12
    10001d08:	21 04 80 4e 	bctrl
    10001d0c:	18 00 41 e8 	ld      r2,24(r1)
    10001d10:	40 f8 3d 7c 	cmpld   r29,r31
    10001d14:	dc ff 82 40 	bne     10001cf0 <__libc_csu_init+0x70>
    10001d18:	48 00 e1 eb 	ld      r31,72(r1)
    10001d1c:	50 00 21 38 	addi    r1,r1,80
    10001d20:	10 00 01 e8 	ld      r0,16(r1)
    10001d24:	d0 ff 41 eb 	ld      r26,-48(r1)
    10001d28:	d8 ff 61 eb 	ld      r27,-40(r1)
    10001d2c:	e0 ff 81 eb 	ld      r28,-32(r1)
    10001d30:	e8 ff a1 eb 	ld      r29,-24(r1)
    10001d34:	f0 ff c1 eb 	ld      r30,-16(r1)
    10001d38:	a6 03 08 7c 	mtlr    r0
    10001d3c:	20 00 80 4e 	blr
    10001d40:	00 00 00 00 	.long 0x0
    10001d44:	00 00 00 01 	.long 0x1000000
    10001d48:	80 06 00 00 	.long 0x680
    10001d4c:	00 00 42 60 	ori     r2,r2,0

0000000010001d50 <__libc_csu_fini>:
    10001d50:	20 00 80 4e 	blr
	...
    10001d60:	90 e2 01 00 	.long 0x1e290
    10001d64:	00 00 00 00 	.long 0x0

0000000010001d68 <__glink_PLTresolve>:
    10001d68:	a6 02 08 7c 	mflr    r0
    10001d6c:	05 00 9f 42 	bcl     20,4*cr7+so,10001d70 <__glink_PLTresolve+0x8>
    10001d70:	a6 02 68 7d 	mflr    r11
    10001d74:	18 00 41 f8 	std     r2,24(r1)
    10001d78:	f0 ff 4b e8 	ld      r2,-16(r11)
    10001d7c:	a6 03 08 7c 	mtlr    r0
    10001d80:	50 60 8b 7d 	subf    r12,r11,r12
    10001d84:	14 5a 62 7d 	add     r11,r2,r11
    10001d88:	d0 ff 0c 38 	addi    r0,r12,-48
    10001d8c:	00 00 8b e9 	ld      r12,0(r11)
    10001d90:	82 f0 00 78 	rldicl  r0,r0,62,2
    10001d94:	a6 03 89 7d 	mtctr   r12
    10001d98:	08 00 6b e9 	ld      r11,8(r11)
    10001d9c:	20 04 80 4e 	bctr

0000000010001da0 <perror@plt>:
    10001da0:	c8 ff ff 4b 	b       10001d68 <__glink_PLTresolve>

0000000010001da4 <strtoll@plt>:
    10001da4:	c4 ff ff 4b 	b       10001d68 <__glink_PLTresolve>

0000000010001da8 <strtod@plt>:
    10001da8:	c0 ff ff 4b 	b       10001d68 <__glink_PLTresolve>

0000000010001dac <fgets_unlocked@plt>:
    10001dac:	bc ff ff 4b 	b       10001d68 <__glink_PLTresolve>

0000000010001db0 <fputc@plt>:
    10001db0:	b8 ff ff 4b 	b       10001d68 <__glink_PLTresolve>

0000000010001db4 <fclose@plt>:
    10001db4:	b4 ff ff 4b 	b       10001d68 <__glink_PLTresolve>

0000000010001db8 <fopen@plt>:
    10001db8:	b0 ff ff 4b 	b       10001d68 <__glink_PLTresolve>

0000000010001dbc <strncmp@plt>:
    10001dbc:	ac ff ff 4b 	b       10001d68 <__glink_PLTresolve>

0000000010001dc0 <__libc_start_main@plt>:
    10001dc0:	a8 ff ff 4b 	b       10001d68 <__glink_PLTresolve>

0000000010001dc4 <__gmon_start__@plt>:
    10001dc4:	a4 ff ff 4b 	b       10001d68 <__glink_PLTresolve>

0000000010001dc8 <__ctype_b_loc@plt>:
    10001dc8:	a0 ff ff 4b 	b       10001d68 <__glink_PLTresolve>

0000000010001dcc <strchr@plt>:
    10001dcc:	9c ff ff 4b 	b       10001d68 <__glink_PLTresolve>

0000000010001dd0 <__errno_location@plt>:
    10001dd0:	98 ff ff 4b 	b       10001d68 <__glink_PLTresolve>

0000000010001dd4 <fprintf@plt>:
    10001dd4:	94 ff ff 4b 	b       10001d68 <__glink_PLTresolve>

Disassembly of section .fini:

0000000010001dd8 <_fini>:
    10001dd8:	02 10 40 3c 	lis     r2,4098
    10001ddc:	00 7f 42 38 	addi    r2,r2,32512
    10001de0:	a6 02 08 7c 	mflr    r0
    10001de4:	10 00 01 f8 	std     r0,16(r1)
    10001de8:	a1 ff 21 f8 	stdu    r1,-96(r1)
    10001dec:	60 00 21 38 	addi    r1,r1,96
    10001df0:	10 00 01 e8 	ld      r0,16(r1)
    10001df4:	a6 03 08 7c 	mtlr    r0
    10001df8:	20 00 80 4e 	blr
